
edd-sign:     file format elf64-x86-64


Disassembly of section .init:

0000000000001000 <_init>:
    1000:	f3 0f 1e fa          	endbr64 
    1004:	48 83 ec 08          	sub    $0x8,%rsp
    1008:	48 8b 05 d9 2f 00 00 	mov    0x2fd9(%rip),%rax        # 3fe8 <__gmon_start__>
    100f:	48 85 c0             	test   %rax,%rax
    1012:	74 02                	je     1016 <_init+0x16>
    1014:	ff d0                	callq  *%rax
    1016:	48 83 c4 08          	add    $0x8,%rsp
    101a:	c3                   	retq   

Disassembly of section .plt:

0000000000001020 <.plt>:
    1020:	ff 35 5a 2f 00 00    	pushq  0x2f5a(%rip)        # 3f80 <_GLOBAL_OFFSET_TABLE_+0x8>
    1026:	f2 ff 25 5b 2f 00 00 	bnd jmpq *0x2f5b(%rip)        # 3f88 <_GLOBAL_OFFSET_TABLE_+0x10>
    102d:	0f 1f 00             	nopl   (%rax)
    1030:	f3 0f 1e fa          	endbr64 
    1034:	68 00 00 00 00       	pushq  $0x0
    1039:	f2 e9 e1 ff ff ff    	bnd jmpq 1020 <.plt>
    103f:	90                   	nop
    1040:	f3 0f 1e fa          	endbr64 
    1044:	68 01 00 00 00       	pushq  $0x1
    1049:	f2 e9 d1 ff ff ff    	bnd jmpq 1020 <.plt>
    104f:	90                   	nop
    1050:	f3 0f 1e fa          	endbr64 
    1054:	68 02 00 00 00       	pushq  $0x2
    1059:	f2 e9 c1 ff ff ff    	bnd jmpq 1020 <.plt>
    105f:	90                   	nop
    1060:	f3 0f 1e fa          	endbr64 
    1064:	68 03 00 00 00       	pushq  $0x3
    1069:	f2 e9 b1 ff ff ff    	bnd jmpq 1020 <.plt>
    106f:	90                   	nop
    1070:	f3 0f 1e fa          	endbr64 
    1074:	68 04 00 00 00       	pushq  $0x4
    1079:	f2 e9 a1 ff ff ff    	bnd jmpq 1020 <.plt>
    107f:	90                   	nop
    1080:	f3 0f 1e fa          	endbr64 
    1084:	68 05 00 00 00       	pushq  $0x5
    1089:	f2 e9 91 ff ff ff    	bnd jmpq 1020 <.plt>
    108f:	90                   	nop
    1090:	f3 0f 1e fa          	endbr64 
    1094:	68 06 00 00 00       	pushq  $0x6
    1099:	f2 e9 81 ff ff ff    	bnd jmpq 1020 <.plt>
    109f:	90                   	nop
    10a0:	f3 0f 1e fa          	endbr64 
    10a4:	68 07 00 00 00       	pushq  $0x7
    10a9:	f2 e9 71 ff ff ff    	bnd jmpq 1020 <.plt>
    10af:	90                   	nop
    10b0:	f3 0f 1e fa          	endbr64 
    10b4:	68 08 00 00 00       	pushq  $0x8
    10b9:	f2 e9 61 ff ff ff    	bnd jmpq 1020 <.plt>
    10bf:	90                   	nop

Disassembly of section .plt.got:

00000000000010c0 <__cxa_finalize@plt>:
    10c0:	f3 0f 1e fa          	endbr64 
    10c4:	f2 ff 25 2d 2f 00 00 	bnd jmpq *0x2f2d(%rip)        # 3ff8 <__cxa_finalize@GLIBC_2.2.5>
    10cb:	0f 1f 44 00 00       	nopl   0x0(%rax,%rax,1)

Disassembly of section .plt.sec:

00000000000010d0 <putchar@plt>:
    10d0:	f3 0f 1e fa          	endbr64 
    10d4:	f2 ff 25 b5 2e 00 00 	bnd jmpq *0x2eb5(%rip)        # 3f90 <putchar@GLIBC_2.2.5>
    10db:	0f 1f 44 00 00       	nopl   0x0(%rax,%rax,1)

00000000000010e0 <puts@plt>:
    10e0:	f3 0f 1e fa          	endbr64 
    10e4:	f2 ff 25 ad 2e 00 00 	bnd jmpq *0x2ead(%rip)        # 3f98 <puts@GLIBC_2.2.5>
    10eb:	0f 1f 44 00 00       	nopl   0x0(%rax,%rax,1)

00000000000010f0 <__stack_chk_fail@plt>:
    10f0:	f3 0f 1e fa          	endbr64 
    10f4:	f2 ff 25 a5 2e 00 00 	bnd jmpq *0x2ea5(%rip)        # 3fa0 <__stack_chk_fail@GLIBC_2.4>
    10fb:	0f 1f 44 00 00       	nopl   0x0(%rax,%rax,1)

0000000000001100 <printf@plt>:
    1100:	f3 0f 1e fa          	endbr64 
    1104:	f2 ff 25 9d 2e 00 00 	bnd jmpq *0x2e9d(%rip)        # 3fa8 <printf@GLIBC_2.2.5>
    110b:	0f 1f 44 00 00       	nopl   0x0(%rax,%rax,1)

0000000000001110 <__isoc99_sscanf@plt>:
    1110:	f3 0f 1e fa          	endbr64 
    1114:	f2 ff 25 95 2e 00 00 	bnd jmpq *0x2e95(%rip)        # 3fb0 <__isoc99_sscanf@GLIBC_2.7>
    111b:	0f 1f 44 00 00       	nopl   0x0(%rax,%rax,1)

0000000000001120 <wc_InitRng@plt>:
    1120:	f3 0f 1e fa          	endbr64 
    1124:	f2 ff 25 8d 2e 00 00 	bnd jmpq *0x2e8d(%rip)        # 3fb8 <wc_InitRng>
    112b:	0f 1f 44 00 00       	nopl   0x0(%rax,%rax,1)

0000000000001130 <wc_ed25519_sign_msg2@plt>:
    1130:	f3 0f 1e fa          	endbr64 
    1134:	f2 ff 25 85 2e 00 00 	bnd jmpq *0x2e85(%rip)        # 3fc0 <wc_ed25519_sign_msg2>
    113b:	0f 1f 44 00 00       	nopl   0x0(%rax,%rax,1)

0000000000001140 <wc_ed25519_init@plt>:
    1140:	f3 0f 1e fa          	endbr64 
    1144:	f2 ff 25 7d 2e 00 00 	bnd jmpq *0x2e7d(%rip)        # 3fc8 <wc_ed25519_init>
    114b:	0f 1f 44 00 00       	nopl   0x0(%rax,%rax,1)

0000000000001150 <wc_ed25519_import_private_key@plt>:
    1150:	f3 0f 1e fa          	endbr64 
    1154:	f2 ff 25 75 2e 00 00 	bnd jmpq *0x2e75(%rip)        # 3fd0 <wc_ed25519_import_private_key>
    115b:	0f 1f 44 00 00       	nopl   0x0(%rax,%rax,1)

Disassembly of section .text:

0000000000001160 <_start>:
    1160:	f3 0f 1e fa          	endbr64 
    1164:	31 ed                	xor    %ebp,%ebp
    1166:	49 89 d1             	mov    %rdx,%r9
    1169:	5e                   	pop    %rsi
    116a:	48 89 e2             	mov    %rsp,%rdx
    116d:	48 83 e4 f0          	and    $0xfffffffffffffff0,%rsp
    1171:	50                   	push   %rax
    1172:	54                   	push   %rsp
    1173:	4c 8d 05 f6 06 00 00 	lea    0x6f6(%rip),%r8        # 1870 <__libc_csu_fini>
    117a:	48 8d 0d 7f 06 00 00 	lea    0x67f(%rip),%rcx        # 1800 <__libc_csu_init>
    1181:	48 8d 3d 04 02 00 00 	lea    0x204(%rip),%rdi        # 138c <main>
    1188:	ff 15 52 2e 00 00    	callq  *0x2e52(%rip)        # 3fe0 <__libc_start_main@GLIBC_2.2.5>
    118e:	f4                   	hlt    
    118f:	90                   	nop

0000000000001190 <deregister_tm_clones>:
    1190:	48 8d 3d 11 2f 00 00 	lea    0x2f11(%rip),%rdi        # 40a8 <__TMC_END__>
    1197:	48 8d 05 0a 2f 00 00 	lea    0x2f0a(%rip),%rax        # 40a8 <__TMC_END__>
    119e:	48 39 f8             	cmp    %rdi,%rax
    11a1:	74 15                	je     11b8 <deregister_tm_clones+0x28>
    11a3:	48 8b 05 2e 2e 00 00 	mov    0x2e2e(%rip),%rax        # 3fd8 <_ITM_deregisterTMCloneTable>
    11aa:	48 85 c0             	test   %rax,%rax
    11ad:	74 09                	je     11b8 <deregister_tm_clones+0x28>
    11af:	ff e0                	jmpq   *%rax
    11b1:	0f 1f 80 00 00 00 00 	nopl   0x0(%rax)
    11b8:	c3                   	retq   
    11b9:	0f 1f 80 00 00 00 00 	nopl   0x0(%rax)

00000000000011c0 <register_tm_clones>:
    11c0:	48 8d 3d e1 2e 00 00 	lea    0x2ee1(%rip),%rdi        # 40a8 <__TMC_END__>
    11c7:	48 8d 35 da 2e 00 00 	lea    0x2eda(%rip),%rsi        # 40a8 <__TMC_END__>
    11ce:	48 29 fe             	sub    %rdi,%rsi
    11d1:	48 89 f0             	mov    %rsi,%rax
    11d4:	48 c1 ee 3f          	shr    $0x3f,%rsi
    11d8:	48 c1 f8 03          	sar    $0x3,%rax
    11dc:	48 01 c6             	add    %rax,%rsi
    11df:	48 d1 fe             	sar    %rsi
    11e2:	74 14                	je     11f8 <register_tm_clones+0x38>
    11e4:	48 8b 05 05 2e 00 00 	mov    0x2e05(%rip),%rax        # 3ff0 <_ITM_registerTMCloneTable>
    11eb:	48 85 c0             	test   %rax,%rax
    11ee:	74 08                	je     11f8 <register_tm_clones+0x38>
    11f0:	ff e0                	jmpq   *%rax
    11f2:	66 0f 1f 44 00 00    	nopw   0x0(%rax,%rax,1)
    11f8:	c3                   	retq   
    11f9:	0f 1f 80 00 00 00 00 	nopl   0x0(%rax)

0000000000001200 <__do_global_dtors_aux>:
    1200:	f3 0f 1e fa          	endbr64 
    1204:	80 3d b5 2e 00 00 00 	cmpb   $0x0,0x2eb5(%rip)        # 40c0 <completed.8061>
    120b:	75 2b                	jne    1238 <__do_global_dtors_aux+0x38>
    120d:	55                   	push   %rbp
    120e:	48 83 3d e2 2d 00 00 	cmpq   $0x0,0x2de2(%rip)        # 3ff8 <__cxa_finalize@GLIBC_2.2.5>
    1215:	00 
    1216:	48 89 e5             	mov    %rsp,%rbp
    1219:	74 0c                	je     1227 <__do_global_dtors_aux+0x27>
    121b:	48 8b 3d e6 2d 00 00 	mov    0x2de6(%rip),%rdi        # 4008 <__dso_handle>
    1222:	e8 99 fe ff ff       	callq  10c0 <__cxa_finalize@plt>
    1227:	e8 64 ff ff ff       	callq  1190 <deregister_tm_clones>
    122c:	c6 05 8d 2e 00 00 01 	movb   $0x1,0x2e8d(%rip)        # 40c0 <completed.8061>
    1233:	5d                   	pop    %rbp
    1234:	c3                   	retq   
    1235:	0f 1f 00             	nopl   (%rax)
    1238:	c3                   	retq   
    1239:	0f 1f 80 00 00 00 00 	nopl   0x0(%rax)

0000000000001240 <frame_dummy>:
    1240:	f3 0f 1e fa          	endbr64 
    1244:	e9 77 ff ff ff       	jmpq   11c0 <register_tm_clones>

0000000000001249 <print_x>:
#include <wolfssl/wolfcrypt/ed25519.h>
#include <assert.h>

#define WOLFSSL_EDDSA_CHECK_PRIV_ON_SIGN
void print_x(byte *cipher, int len)
{
    1249:	f3 0f 1e fa          	endbr64 
    124d:	55                   	push   %rbp
    124e:	48 89 e5             	mov    %rsp,%rbp
    1251:	48 83 ec 20          	sub    $0x20,%rsp
    1255:	48 89 7d e8          	mov    %rdi,-0x18(%rbp)
    1259:	89 75 e4             	mov    %esi,-0x1c(%rbp)
    for (int i = 0; i < len; i++)
    125c:	c7 45 fc 00 00 00 00 	movl   $0x0,-0x4(%rbp)
    1263:	eb 2a                	jmp    128f <print_x+0x46>
    {
        printf("%02X", cipher[i]);
    1265:	8b 45 fc             	mov    -0x4(%rbp),%eax
    1268:	48 63 d0             	movslq %eax,%rdx
    126b:	48 8b 45 e8          	mov    -0x18(%rbp),%rax
    126f:	48 01 d0             	add    %rdx,%rax
    1272:	0f b6 00             	movzbl (%rax),%eax
    1275:	0f b6 c0             	movzbl %al,%eax
    1278:	89 c6                	mov    %eax,%esi
    127a:	48 8d 3d 3f 0e 00 00 	lea    0xe3f(%rip),%rdi        # 20c0 <fprime_one+0x20>
    1281:	b8 00 00 00 00       	mov    $0x0,%eax
    1286:	e8 75 fe ff ff       	callq  1100 <printf@plt>
    for (int i = 0; i < len; i++)
    128b:	83 45 fc 01          	addl   $0x1,-0x4(%rbp)
    128f:	8b 45 fc             	mov    -0x4(%rbp),%eax
    1292:	3b 45 e4             	cmp    -0x1c(%rbp),%eax
    1295:	7c ce                	jl     1265 <print_x+0x1c>
    }
    printf("\n");
    1297:	bf 0a 00 00 00       	mov    $0xa,%edi
    129c:	e8 2f fe ff ff       	callq  10d0 <putchar@plt>
}
    12a1:	90                   	nop
    12a2:	c9                   	leaveq 
    12a3:	c3                   	retq   

00000000000012a4 <bit_flip>:
void bit_flip(byte *target, int i)
{
    12a4:	f3 0f 1e fa          	endbr64 
    12a8:	55                   	push   %rbp
    12a9:	48 89 e5             	mov    %rsp,%rbp
    12ac:	48 89 7d e8          	mov    %rdi,-0x18(%rbp)
    12b0:	89 75 e4             	mov    %esi,-0x1c(%rbp)
    int pos = i / (sizeof(byte) * 8);
    12b3:	8b 45 e4             	mov    -0x1c(%rbp),%eax
    12b6:	48 98                	cltq   
    12b8:	48 c1 e8 03          	shr    $0x3,%rax
    12bc:	89 45 f8             	mov    %eax,-0x8(%rbp)
    int num = i % (sizeof(byte) * 8);
    12bf:	8b 45 e4             	mov    -0x1c(%rbp),%eax
    12c2:	83 e0 07             	and    $0x7,%eax
    12c5:	89 45 fc             	mov    %eax,-0x4(%rbp)
    //printf("pos,num: %d %d\n",pos,num);
    byte tmp = 1;
    12c8:	c6 45 f3 01          	movb   $0x1,-0xd(%rbp)
    for (int k = 0; k < num; k++)
    12cc:	c7 45 f4 00 00 00 00 	movl   $0x0,-0xc(%rbp)
    12d3:	eb 07                	jmp    12dc <bit_flip+0x38>
    {
        tmp = tmp * 2;
    12d5:	d0 65 f3             	shlb   -0xd(%rbp)
    for (int k = 0; k < num; k++)
    12d8:	83 45 f4 01          	addl   $0x1,-0xc(%rbp)
    12dc:	8b 45 f4             	mov    -0xc(%rbp),%eax
    12df:	3b 45 fc             	cmp    -0x4(%rbp),%eax
    12e2:	7c f1                	jl     12d5 <bit_flip+0x31>
    }
    target[pos] = target[pos] ^ tmp;
    12e4:	8b 45 f8             	mov    -0x8(%rbp),%eax
    12e7:	48 63 d0             	movslq %eax,%rdx
    12ea:	48 8b 45 e8          	mov    -0x18(%rbp),%rax
    12ee:	48 01 d0             	add    %rdx,%rax
    12f1:	0f b6 00             	movzbl (%rax),%eax
    12f4:	8b 55 f8             	mov    -0x8(%rbp),%edx
    12f7:	48 63 ca             	movslq %edx,%rcx
    12fa:	48 8b 55 e8          	mov    -0x18(%rbp),%rdx
    12fe:	48 01 ca             	add    %rcx,%rdx
    1301:	32 45 f3             	xor    -0xd(%rbp),%al
    1304:	88 02                	mov    %al,(%rdx)
}
    1306:	90                   	nop
    1307:	5d                   	pop    %rbp
    1308:	c3                   	retq   

0000000000001309 <read_from_hex>:
void read_from_hex(byte *target, word32 num, char *hex)
{
    1309:	f3 0f 1e fa          	endbr64 
    130d:	55                   	push   %rbp
    130e:	48 89 e5             	mov    %rsp,%rbp
    1311:	48 83 ec 30          	sub    $0x30,%rsp
    1315:	48 89 7d e8          	mov    %rdi,-0x18(%rbp)
    1319:	89 75 e4             	mov    %esi,-0x1c(%rbp)
    131c:	48 89 55 d8          	mov    %rdx,-0x28(%rbp)
    for (int i = 0; i < num; i++)
    1320:	c7 45 fc 00 00 00 00 	movl   $0x0,-0x4(%rbp)
    1327:	eb 34                	jmp    135d <read_from_hex+0x54>
    {
        sscanf(hex + 2 * i, "%2hhx", &target[i]);
    1329:	8b 45 fc             	mov    -0x4(%rbp),%eax
    132c:	48 63 d0             	movslq %eax,%rdx
    132f:	48 8b 45 e8          	mov    -0x18(%rbp),%rax
    1333:	48 01 c2             	add    %rax,%rdx
    1336:	8b 45 fc             	mov    -0x4(%rbp),%eax
    1339:	01 c0                	add    %eax,%eax
    133b:	48 63 c8             	movslq %eax,%rcx
    133e:	48 8b 45 d8          	mov    -0x28(%rbp),%rax
    1342:	48 01 c8             	add    %rcx,%rax
    1345:	48 8d 35 79 0d 00 00 	lea    0xd79(%rip),%rsi        # 20c5 <fprime_one+0x25>
    134c:	48 89 c7             	mov    %rax,%rdi
    134f:	b8 00 00 00 00       	mov    $0x0,%eax
    1354:	e8 b7 fd ff ff       	callq  1110 <__isoc99_sscanf@plt>
    for (int i = 0; i < num; i++)
    1359:	83 45 fc 01          	addl   $0x1,-0x4(%rbp)
    135d:	8b 45 fc             	mov    -0x4(%rbp),%eax
    1360:	39 45 e4             	cmp    %eax,-0x1c(%rbp)
    1363:	77 c4                	ja     1329 <read_from_hex+0x20>
    }
}
    1365:	90                   	nop
    1366:	90                   	nop
    1367:	c9                   	leaveq 
    1368:	c3                   	retq   

0000000000001369 <ctMaskGT>:

byte ctMaskGT(int a, int b)
{
    1369:	f3 0f 1e fa          	endbr64 
    136d:	55                   	push   %rbp
    136e:	48 89 e5             	mov    %rsp,%rbp
    1371:	89 7d fc             	mov    %edi,-0x4(%rbp)
    1374:	89 75 f8             	mov    %esi,-0x8(%rbp)
    return (byte)((((word32)a - (word32)b - 1) >> 31) - 1);
    1377:	8b 55 fc             	mov    -0x4(%rbp),%edx
    137a:	8b 45 f8             	mov    -0x8(%rbp),%eax
    137d:	29 c2                	sub    %eax,%edx
    137f:	89 d0                	mov    %edx,%eax
    1381:	83 e8 01             	sub    $0x1,%eax
    1384:	c1 e8 1f             	shr    $0x1f,%eax
    1387:	83 e8 01             	sub    $0x1,%eax
}
    138a:	5d                   	pop    %rbp
    138b:	c3                   	retq   

000000000000138c <main>:
char s_hex[] = "E65F2664920521728A94CAC7D50C3E16C0BAB06A690279DBDF3"
               "A2E80A308B80C3B398C0A56A9AF7E302D494ED8A7F7968220E3F0EAC8ECAB728284C25D75F566";
byte sec[64];
byte sec2[64];
int main()
{
    138c:	f3 0f 1e fa          	endbr64 
    1390:	55                   	push   %rbp
    1391:	48 89 e5             	mov    %rsp,%rbp
    1394:	48 81 ec 10 03 00 00 	sub    $0x310,%rsp
    139b:	64 48 8b 04 25 28 00 	mov    %fs:0x28,%rax
    13a2:	00 00 
    13a4:	48 89 45 f8          	mov    %rax,-0x8(%rbp)
    13a8:	31 c0                	xor    %eax,%eax

    ed25519_key key;
    WC_RNG rng;
    word32 ret, sigSz;
    int verified = 0;
    13aa:	c7 85 00 fd ff ff 00 	movl   $0x0,-0x300(%rbp)
    13b1:	00 00 00 

    byte sig[64]; // will hold generated signature
    sigSz = sizeof(sig);
    13b4:	c7 85 f8 fc ff ff 40 	movl   $0x40,-0x308(%rbp)
    13bb:	00 00 00 
    byte message[] = {"hello world"};
    13be:	48 b8 68 65 6c 6c 6f 	movabs $0x6f77206f6c6c6568,%rax
    13c5:	20 77 6f 
    13c8:	48 89 85 94 fe ff ff 	mov    %rax,-0x16c(%rbp)
    13cf:	c7 85 9c fe ff ff 72 	movl   $0x646c72,-0x164(%rbp)
    13d6:	6c 64 00 

    wc_InitRng(&rng);      // initialize rng
    13d9:	48 8d 85 10 fd ff ff 	lea    -0x2f0(%rbp),%rax
    13e0:	48 89 c7             	mov    %rax,%rdi
    13e3:	e8 38 fd ff ff       	callq  1120 <wc_InitRng@plt>
    wc_ed25519_init(&key); // initialize key
    13e8:	48 8d 85 30 fd ff ff 	lea    -0x2d0(%rbp),%rax
    13ef:	48 89 c7             	mov    %rax,%rdi
    13f2:	e8 49 fd ff ff       	callq  1140 <wc_ed25519_init@plt>
    //wc_ed25519_make_key(&rng, 32, &key); // make public/private key pair
    char pub_hex[] = "D579E7F40D32BE867FDD9163FFE18D54B5BD6D57463DCA1D54A396AD77E9DCC6";
    13f7:	48 b8 44 35 37 39 45 	movabs $0x3446374539373544,%rax
    13fe:	37 46 34 
    1401:	48 ba 30 44 33 32 42 	movabs $0x3638454232334430,%rdx
    1408:	45 38 36 
    140b:	48 89 85 60 ff ff ff 	mov    %rax,-0xa0(%rbp)
    1412:	48 89 95 68 ff ff ff 	mov    %rdx,-0x98(%rbp)
    1419:	48 b8 37 46 44 44 39 	movabs $0x3336313944444637,%rax
    1420:	31 36 33 
    1423:	48 ba 46 46 45 31 38 	movabs $0x3435443831454646,%rdx
    142a:	44 35 34 
    142d:	48 89 85 70 ff ff ff 	mov    %rax,-0x90(%rbp)
    1434:	48 89 95 78 ff ff ff 	mov    %rdx,-0x88(%rbp)
    143b:	48 b8 42 35 42 44 36 	movabs $0x3735443644423542,%rax
    1442:	44 35 37 
    1445:	48 ba 34 36 33 44 43 	movabs $0x4431414344333634,%rdx
    144c:	41 31 44 
    144f:	48 89 45 80          	mov    %rax,-0x80(%rbp)
    1453:	48 89 55 88          	mov    %rdx,-0x78(%rbp)
    1457:	48 b8 35 34 41 33 39 	movabs $0x4441363933413435,%rax
    145e:	36 41 44 
    1461:	48 ba 37 37 45 39 44 	movabs $0x3643434439453737,%rdx
    1468:	43 43 36 
    146b:	48 89 45 90          	mov    %rax,-0x70(%rbp)
    146f:	48 89 55 98          	mov    %rdx,-0x68(%rbp)
    1473:	c6 45 a0 00          	movb   $0x0,-0x60(%rbp)
    char priv_hex[] = "C1361B023124F32E0E7CA9F1C8F8B7165A9F2BAB05B6EC8E2064F00B0FDA87CD";
    1477:	48 b8 43 31 33 36 31 	movabs $0x3230423136333143,%rax
    147e:	42 30 32 
    1481:	48 ba 33 31 32 34 46 	movabs $0x4532334634323133,%rdx
    1488:	33 32 45 
    148b:	48 89 45 b0          	mov    %rax,-0x50(%rbp)
    148f:	48 89 55 b8          	mov    %rdx,-0x48(%rbp)
    1493:	48 b8 30 45 37 43 41 	movabs $0x3146394143374530,%rax
    149a:	39 46 31 
    149d:	48 ba 43 38 46 38 42 	movabs $0x3631374238463843,%rdx
    14a4:	37 31 36 
    14a7:	48 89 45 c0          	mov    %rax,-0x40(%rbp)
    14ab:	48 89 55 c8          	mov    %rdx,-0x38(%rbp)
    14af:	48 b8 35 41 39 46 32 	movabs $0x4241423246394135,%rax
    14b6:	42 41 42 
    14b9:	48 ba 30 35 42 36 45 	movabs $0x4538434536423530,%rdx
    14c0:	43 38 45 
    14c3:	48 89 45 d0          	mov    %rax,-0x30(%rbp)
    14c7:	48 89 55 d8          	mov    %rdx,-0x28(%rbp)
    14cb:	48 b8 32 30 36 34 46 	movabs $0x4230304634363032,%rax
    14d2:	30 30 42 
    14d5:	48 ba 30 46 44 41 38 	movabs $0x4443373841444630,%rdx
    14dc:	37 43 44 
    14df:	48 89 45 e0          	mov    %rax,-0x20(%rbp)
    14e3:	48 89 55 e8          	mov    %rdx,-0x18(%rbp)
    14e7:	c6 45 f0 00          	movb   $0x0,-0x10(%rbp)
    byte pub[32];
    word32 pubSz = sizeof(pub);
    14eb:	c7 85 04 fd ff ff 20 	movl   $0x20,-0x2fc(%rbp)
    14f2:	00 00 00 
    byte priv[32];
    word32 privSz = sizeof(priv);
    14f5:	c7 85 08 fd ff ff 20 	movl   $0x20,-0x2f8(%rbp)
    14fc:	00 00 00 
    read_from_hex(pub, pubSz, pub_hex);
    14ff:	48 8d 95 60 ff ff ff 	lea    -0xa0(%rbp),%rdx
    1506:	8b 8d 04 fd ff ff    	mov    -0x2fc(%rbp),%ecx
    150c:	48 8d 85 a0 fe ff ff 	lea    -0x160(%rbp),%rax
    1513:	89 ce                	mov    %ecx,%esi
    1515:	48 89 c7             	mov    %rax,%rdi
    1518:	e8 ec fd ff ff       	callq  1309 <read_from_hex>
    read_from_hex(priv, privSz, priv_hex);
    151d:	48 8d 55 b0          	lea    -0x50(%rbp),%rdx
    1521:	8b 8d 08 fd ff ff    	mov    -0x2f8(%rbp),%ecx
    1527:	48 8d 85 c0 fe ff ff 	lea    -0x140(%rbp),%rax
    152e:	89 ce                	mov    %ecx,%esi
    1530:	48 89 c7             	mov    %rax,%rdi
    1533:	e8 d1 fd ff ff       	callq  1309 <read_from_hex>
    read_from_hex(sec, 64, s_hex);
    1538:	48 8d 15 e1 2a 00 00 	lea    0x2ae1(%rip),%rdx        # 4020 <s_hex>
    153f:	be 40 00 00 00       	mov    $0x40,%esi
    1544:	48 8d 3d d5 2b 00 00 	lea    0x2bd5(%rip),%rdi        # 4120 <sec>
    154b:	e8 b9 fd ff ff       	callq  1309 <read_from_hex>
    wc_ed25519_import_private_key(priv, privSz, pub, pubSz, &key);
    1550:	48 8d bd 30 fd ff ff 	lea    -0x2d0(%rbp),%rdi
    1557:	8b 8d 04 fd ff ff    	mov    -0x2fc(%rbp),%ecx
    155d:	48 8d 95 a0 fe ff ff 	lea    -0x160(%rbp),%rdx
    1564:	8b b5 08 fd ff ff    	mov    -0x2f8(%rbp),%esi
    156a:	48 8d 85 c0 fe ff ff 	lea    -0x140(%rbp),%rax
    1571:	49 89 f8             	mov    %rdi,%r8
    1574:	48 89 c7             	mov    %rax,%rdi
    1577:	e8 d4 fb ff ff       	callq  1150 <wc_ed25519_import_private_key@plt>
#ifdef WOLFSSL_EDDSA_CHECK_PRIV_ON_SIGN
    byte orig_k[64];
    XMEMCPY(orig_k, sec, 64);
    157c:	48 8b 05 9d 2b 00 00 	mov    0x2b9d(%rip),%rax        # 4120 <sec>
    1583:	48 8b 15 9e 2b 00 00 	mov    0x2b9e(%rip),%rdx        # 4128 <sec+0x8>
    158a:	48 89 85 20 ff ff ff 	mov    %rax,-0xe0(%rbp)
    1591:	48 89 95 28 ff ff ff 	mov    %rdx,-0xd8(%rbp)
    1598:	48 8b 05 91 2b 00 00 	mov    0x2b91(%rip),%rax        # 4130 <sec+0x10>
    159f:	48 8b 15 92 2b 00 00 	mov    0x2b92(%rip),%rdx        # 4138 <sec+0x18>
    15a6:	48 89 85 30 ff ff ff 	mov    %rax,-0xd0(%rbp)
    15ad:	48 89 95 38 ff ff ff 	mov    %rdx,-0xc8(%rbp)
    15b4:	48 8b 05 85 2b 00 00 	mov    0x2b85(%rip),%rax        # 4140 <sec+0x20>
    15bb:	48 8b 15 86 2b 00 00 	mov    0x2b86(%rip),%rdx        # 4148 <sec+0x28>
    15c2:	48 89 85 40 ff ff ff 	mov    %rax,-0xc0(%rbp)
    15c9:	48 89 95 48 ff ff ff 	mov    %rdx,-0xb8(%rbp)
    15d0:	48 8b 05 79 2b 00 00 	mov    0x2b79(%rip),%rax        # 4150 <sec+0x30>
    15d7:	48 8b 15 7a 2b 00 00 	mov    0x2b7a(%rip),%rdx        # 4158 <sec+0x38>
    15de:	48 89 85 50 ff ff ff 	mov    %rax,-0xb0(%rbp)
    15e5:	48 89 95 58 ff ff ff 	mov    %rdx,-0xa8(%rbp)
#endif
    memcpy(sec2, sec, 64);
    15ec:	48 8b 05 2d 2b 00 00 	mov    0x2b2d(%rip),%rax        # 4120 <sec>
    15f3:	48 8b 15 2e 2b 00 00 	mov    0x2b2e(%rip),%rdx        # 4128 <sec+0x8>
    15fa:	48 89 05 df 2a 00 00 	mov    %rax,0x2adf(%rip)        # 40e0 <sec2>
    1601:	48 89 15 e0 2a 00 00 	mov    %rdx,0x2ae0(%rip)        # 40e8 <sec2+0x8>
    1608:	48 8b 05 21 2b 00 00 	mov    0x2b21(%rip),%rax        # 4130 <sec+0x10>
    160f:	48 8b 15 22 2b 00 00 	mov    0x2b22(%rip),%rdx        # 4138 <sec+0x18>
    1616:	48 89 05 d3 2a 00 00 	mov    %rax,0x2ad3(%rip)        # 40f0 <sec2+0x10>
    161d:	48 89 15 d4 2a 00 00 	mov    %rdx,0x2ad4(%rip)        # 40f8 <sec2+0x18>
    1624:	48 8b 05 15 2b 00 00 	mov    0x2b15(%rip),%rax        # 4140 <sec+0x20>
    162b:	48 8b 15 16 2b 00 00 	mov    0x2b16(%rip),%rdx        # 4148 <sec+0x28>
    1632:	48 89 05 c7 2a 00 00 	mov    %rax,0x2ac7(%rip)        # 4100 <sec2+0x20>
    1639:	48 89 15 c8 2a 00 00 	mov    %rdx,0x2ac8(%rip)        # 4108 <sec2+0x28>
    1640:	48 8b 05 09 2b 00 00 	mov    0x2b09(%rip),%rax        # 4150 <sec+0x30>
    1647:	48 8b 15 0a 2b 00 00 	mov    0x2b0a(%rip),%rdx        # 4158 <sec+0x38>
    164e:	48 89 05 bb 2a 00 00 	mov    %rax,0x2abb(%rip)        # 4110 <sec2+0x30>
    1655:	48 89 15 bc 2a 00 00 	mov    %rdx,0x2abc(%rip)        # 4118 <sec2+0x38>
    printf("fpip addr: %p\n", sec2);
    165c:	48 8d 35 7d 2a 00 00 	lea    0x2a7d(%rip),%rsi        # 40e0 <sec2>
    1663:	48 8d 3d 61 0a 00 00 	lea    0xa61(%rip),%rdi        # 20cb <fprime_one+0x2b>
    166a:	b8 00 00 00 00       	mov    $0x0,%eax
    166f:	e8 8c fa ff ff       	callq  1100 <printf@plt>
    printf("function addr: %p\n",main);
    1674:	48 8d 35 11 fd ff ff 	lea    -0x2ef(%rip),%rsi        # 138c <main>
    167b:	48 8d 3d 58 0a 00 00 	lea    0xa58(%rip),%rdi        # 20da <fprime_one+0x3a>
    1682:	b8 00 00 00 00       	mov    $0x0,%eax
    1687:	e8 74 fa ff ff       	callq  1100 <printf@plt>
    //sleep(2);
    //Rowhammer bit flip here, or the global variable sec
    bit_flip(sec2, 50);
    168c:	be 32 00 00 00       	mov    $0x32,%esi
    1691:	48 8d 3d 48 2a 00 00 	lea    0x2a48(%rip),%rdi        # 40e0 <sec2>
    1698:	e8 07 fc ff ff       	callq  12a4 <bit_flip>

    //Sign message
    ret = wc_ed25519_sign_msg2(message, sizeof(message), sig, &sigSz, &key, sec2);
    169d:	48 8d b5 30 fd ff ff 	lea    -0x2d0(%rbp),%rsi
    16a4:	48 8d 8d f8 fc ff ff 	lea    -0x308(%rbp),%rcx
    16ab:	48 8d 95 e0 fe ff ff 	lea    -0x120(%rbp),%rdx
    16b2:	48 8d 85 94 fe ff ff 	lea    -0x16c(%rbp),%rax
    16b9:	4c 8d 0d 20 2a 00 00 	lea    0x2a20(%rip),%r9        # 40e0 <sec2>
    16c0:	49 89 f0             	mov    %rsi,%r8
    16c3:	be 0c 00 00 00       	mov    $0xc,%esi
    16c8:	48 89 c7             	mov    %rax,%rdi
    16cb:	e8 60 fa ff ff       	callq  1130 <wc_ed25519_sign_msg2@plt>
    16d0:	89 85 0c fd ff ff    	mov    %eax,-0x2f4(%rbp)
    printf("sign sz: %d\n", sigSz);
    16d6:	8b 85 f8 fc ff ff    	mov    -0x308(%rbp),%eax
    16dc:	89 c6                	mov    %eax,%esi
    16de:	48 8d 3d 08 0a 00 00 	lea    0xa08(%rip),%rdi        # 20ed <fprime_one+0x4d>
    16e5:	b8 00 00 00 00       	mov    $0x0,%eax
    16ea:	e8 11 fa ff ff       	callq  1100 <printf@plt>
    if (ret != 0)
    16ef:	83 bd 0c fd ff ff 00 	cmpl   $0x0,-0x2f4(%rbp)
    16f6:	74 0c                	je     1704 <main+0x378>
    {
        printf("Not found\n");
    16f8:	48 8d 3d fb 09 00 00 	lea    0x9fb(%rip),%rdi        # 20fa <fprime_one+0x5a>
    16ff:	e8 dc f9 ff ff       	callq  10e0 <puts@plt>
    }

#ifdef WOLFSSL_EDDSA_CHECK_PRIV_ON_SIGN
    {
        int i;
        byte c = 0;
    1704:	c6 85 f7 fc ff ff 00 	movb   $0x0,-0x309(%rbp)
        for (i = 0; i < 64; i++)
    170b:	c7 85 fc fc ff ff 00 	movl   $0x0,-0x304(%rbp)
    1712:	00 00 00 
    1715:	eb 32                	jmp    1749 <main+0x3bd>
        {
            c |= sec2[i] ^ orig_k[i];
    1717:	8b 85 fc fc ff ff    	mov    -0x304(%rbp),%eax
    171d:	48 98                	cltq   
    171f:	48 8d 15 ba 29 00 00 	lea    0x29ba(%rip),%rdx        # 40e0 <sec2>
    1726:	0f b6 14 10          	movzbl (%rax,%rdx,1),%edx
    172a:	8b 85 fc fc ff ff    	mov    -0x304(%rbp),%eax
    1730:	48 98                	cltq   
    1732:	0f b6 84 05 20 ff ff 	movzbl -0xe0(%rbp,%rax,1),%eax
    1739:	ff 
    173a:	31 d0                	xor    %edx,%eax
    173c:	08 85 f7 fc ff ff    	or     %al,-0x309(%rbp)
        for (i = 0; i < 64; i++)
    1742:	83 85 fc fc ff ff 01 	addl   $0x1,-0x304(%rbp)
    1749:	83 bd fc fc ff ff 3f 	cmpl   $0x3f,-0x304(%rbp)
    1750:	7e c5                	jle    1717 <main+0x38b>
        }
        ret = ctMaskGT(c, 0) & SIG_VERIFY_E;
    1752:	0f b6 85 f7 fc ff ff 	movzbl -0x309(%rbp),%eax
    1759:	be 00 00 00 00       	mov    $0x0,%esi
    175e:	89 c7                	mov    %eax,%edi
    1760:	e8 04 fc ff ff       	callq  1369 <ctMaskGT>
    1765:	0f b6 c0             	movzbl %al,%eax
    1768:	24 1b                	and    $0x1b,%al
    176a:	89 85 0c fd ff ff    	mov    %eax,-0x2f4(%rbp)
    }
#endif

    if (ret == 0)
    1770:	83 bd 0c fd ff ff 00 	cmpl   $0x0,-0x2f4(%rbp)
    1777:	75 34                	jne    17ad <main+0x421>
    {
        printf("signature data: , ret: %d\n", ret);
    1779:	8b 85 0c fd ff ff    	mov    -0x2f4(%rbp),%eax
    177f:	89 c6                	mov    %eax,%esi
    1781:	48 8d 3d 7c 09 00 00 	lea    0x97c(%rip),%rdi        # 2104 <fprime_one+0x64>
    1788:	b8 00 00 00 00       	mov    $0x0,%eax
    178d:	e8 6e f9 ff ff       	callq  1100 <printf@plt>
        print_x(sig, sigSz);
    1792:	8b 85 f8 fc ff ff    	mov    -0x308(%rbp),%eax
    1798:	89 c2                	mov    %eax,%edx
    179a:	48 8d 85 e0 fe ff ff 	lea    -0x120(%rbp),%rax
    17a1:	89 d6                	mov    %edx,%esi
    17a3:	48 89 c7             	mov    %rax,%rdi
    17a6:	e8 9e fa ff ff       	callq  1249 <print_x>
    17ab:	eb 31                	jmp    17de <main+0x452>
    }
    else
    {
        printf("redundancy check failed\n");
    17ad:	48 8d 3d 6b 09 00 00 	lea    0x96b(%rip),%rdi        # 211f <fprime_one+0x7f>
    17b4:	e8 27 f9 ff ff       	callq  10e0 <puts@plt>
        printf("Signature data: \n");
    17b9:	48 8d 3d 77 09 00 00 	lea    0x977(%rip),%rdi        # 2137 <fprime_one+0x97>
    17c0:	e8 1b f9 ff ff       	callq  10e0 <puts@plt>
        print_x(sig, sigSz);
    17c5:	8b 85 f8 fc ff ff    	mov    -0x308(%rbp),%eax
    17cb:	89 c2                	mov    %eax,%edx
    17cd:	48 8d 85 e0 fe ff ff 	lea    -0x120(%rbp),%rax
    17d4:	89 d6                	mov    %edx,%esi
    17d6:	48 89 c7             	mov    %rax,%rdi
    17d9:	e8 6b fa ff ff       	callq  1249 <print_x>
    // if (ret != 0)
    // {
    //     printf("not found\n");
    //     // error generating message signature
    // }
    return 0;
    17de:	b8 00 00 00 00       	mov    $0x0,%eax
}
    17e3:	48 8b 4d f8          	mov    -0x8(%rbp),%rcx
    17e7:	64 48 33 0c 25 28 00 	xor    %fs:0x28,%rcx
    17ee:	00 00 
    17f0:	74 05                	je     17f7 <main+0x46b>
    17f2:	e8 f9 f8 ff ff       	callq  10f0 <__stack_chk_fail@plt>
    17f7:	c9                   	leaveq 
    17f8:	c3                   	retq   
    17f9:	0f 1f 80 00 00 00 00 	nopl   0x0(%rax)

0000000000001800 <__libc_csu_init>:
    1800:	f3 0f 1e fa          	endbr64 
    1804:	41 57                	push   %r15
    1806:	4c 8d 3d 5b 25 00 00 	lea    0x255b(%rip),%r15        # 3d68 <__frame_dummy_init_array_entry>
    180d:	41 56                	push   %r14
    180f:	49 89 d6             	mov    %rdx,%r14
    1812:	41 55                	push   %r13
    1814:	49 89 f5             	mov    %rsi,%r13
    1817:	41 54                	push   %r12
    1819:	41 89 fc             	mov    %edi,%r12d
    181c:	55                   	push   %rbp
    181d:	48 8d 2d 4c 25 00 00 	lea    0x254c(%rip),%rbp        # 3d70 <__do_global_dtors_aux_fini_array_entry>
    1824:	53                   	push   %rbx
    1825:	4c 29 fd             	sub    %r15,%rbp
    1828:	48 83 ec 08          	sub    $0x8,%rsp
    182c:	e8 cf f7 ff ff       	callq  1000 <_init>
    1831:	48 c1 fd 03          	sar    $0x3,%rbp
    1835:	74 1f                	je     1856 <__libc_csu_init+0x56>
    1837:	31 db                	xor    %ebx,%ebx
    1839:	0f 1f 80 00 00 00 00 	nopl   0x0(%rax)
    1840:	4c 89 f2             	mov    %r14,%rdx
    1843:	4c 89 ee             	mov    %r13,%rsi
    1846:	44 89 e7             	mov    %r12d,%edi
    1849:	41 ff 14 df          	callq  *(%r15,%rbx,8)
    184d:	48 83 c3 01          	add    $0x1,%rbx
    1851:	48 39 dd             	cmp    %rbx,%rbp
    1854:	75 ea                	jne    1840 <__libc_csu_init+0x40>
    1856:	48 83 c4 08          	add    $0x8,%rsp
    185a:	5b                   	pop    %rbx
    185b:	5d                   	pop    %rbp
    185c:	41 5c                	pop    %r12
    185e:	41 5d                	pop    %r13
    1860:	41 5e                	pop    %r14
    1862:	41 5f                	pop    %r15
    1864:	c3                   	retq   
    1865:	66 66 2e 0f 1f 84 00 	data16 nopw %cs:0x0(%rax,%rax,1)
    186c:	00 00 00 00 

0000000000001870 <__libc_csu_fini>:
    1870:	f3 0f 1e fa          	endbr64 
    1874:	c3                   	retq   

Disassembly of section .fini:

0000000000001878 <_fini>:
    1878:	f3 0f 1e fa          	endbr64 
    187c:	48 83 ec 08          	sub    $0x8,%rsp
    1880:	48 83 c4 08          	add    $0x8,%rsp
    1884:	c3                   	retq   
