
rsa-sign:     file format elf64-x86-64


Disassembly of section .init:

0000000000001000 <_init>:
    1000:	f3 0f 1e fa          	endbr64 
    1004:	48 83 ec 08          	sub    $0x8,%rsp
    1008:	48 8b 05 d9 2f 00 00 	mov    0x2fd9(%rip),%rax        # 3fe8 <__gmon_start__>
    100f:	48 85 c0             	test   %rax,%rax
    1012:	74 02                	je     1016 <_init+0x16>
    1014:	ff d0                	callq  *%rax
    1016:	48 83 c4 08          	add    $0x8,%rsp
    101a:	c3                   	retq   

Disassembly of section .plt:

0000000000001020 <.plt>:
    1020:	ff 35 f2 2e 00 00    	pushq  0x2ef2(%rip)        # 3f18 <_GLOBAL_OFFSET_TABLE_+0x8>
    1026:	f2 ff 25 f3 2e 00 00 	bnd jmpq *0x2ef3(%rip)        # 3f20 <_GLOBAL_OFFSET_TABLE_+0x10>
    102d:	0f 1f 00             	nopl   (%rax)
    1030:	f3 0f 1e fa          	endbr64 
    1034:	68 00 00 00 00       	pushq  $0x0
    1039:	f2 e9 e1 ff ff ff    	bnd jmpq 1020 <.plt>
    103f:	90                   	nop
    1040:	f3 0f 1e fa          	endbr64 
    1044:	68 01 00 00 00       	pushq  $0x1
    1049:	f2 e9 d1 ff ff ff    	bnd jmpq 1020 <.plt>
    104f:	90                   	nop
    1050:	f3 0f 1e fa          	endbr64 
    1054:	68 02 00 00 00       	pushq  $0x2
    1059:	f2 e9 c1 ff ff ff    	bnd jmpq 1020 <.plt>
    105f:	90                   	nop
    1060:	f3 0f 1e fa          	endbr64 
    1064:	68 03 00 00 00       	pushq  $0x3
    1069:	f2 e9 b1 ff ff ff    	bnd jmpq 1020 <.plt>
    106f:	90                   	nop
    1070:	f3 0f 1e fa          	endbr64 
    1074:	68 04 00 00 00       	pushq  $0x4
    1079:	f2 e9 a1 ff ff ff    	bnd jmpq 1020 <.plt>
    107f:	90                   	nop
    1080:	f3 0f 1e fa          	endbr64 
    1084:	68 05 00 00 00       	pushq  $0x5
    1089:	f2 e9 91 ff ff ff    	bnd jmpq 1020 <.plt>
    108f:	90                   	nop
    1090:	f3 0f 1e fa          	endbr64 
    1094:	68 06 00 00 00       	pushq  $0x6
    1099:	f2 e9 81 ff ff ff    	bnd jmpq 1020 <.plt>
    109f:	90                   	nop
    10a0:	f3 0f 1e fa          	endbr64 
    10a4:	68 07 00 00 00       	pushq  $0x7
    10a9:	f2 e9 71 ff ff ff    	bnd jmpq 1020 <.plt>
    10af:	90                   	nop
    10b0:	f3 0f 1e fa          	endbr64 
    10b4:	68 08 00 00 00       	pushq  $0x8
    10b9:	f2 e9 61 ff ff ff    	bnd jmpq 1020 <.plt>
    10bf:	90                   	nop
    10c0:	f3 0f 1e fa          	endbr64 
    10c4:	68 09 00 00 00       	pushq  $0x9
    10c9:	f2 e9 51 ff ff ff    	bnd jmpq 1020 <.plt>
    10cf:	90                   	nop
    10d0:	f3 0f 1e fa          	endbr64 
    10d4:	68 0a 00 00 00       	pushq  $0xa
    10d9:	f2 e9 41 ff ff ff    	bnd jmpq 1020 <.plt>
    10df:	90                   	nop
    10e0:	f3 0f 1e fa          	endbr64 
    10e4:	68 0b 00 00 00       	pushq  $0xb
    10e9:	f2 e9 31 ff ff ff    	bnd jmpq 1020 <.plt>
    10ef:	90                   	nop
    10f0:	f3 0f 1e fa          	endbr64 
    10f4:	68 0c 00 00 00       	pushq  $0xc
    10f9:	f2 e9 21 ff ff ff    	bnd jmpq 1020 <.plt>
    10ff:	90                   	nop
    1100:	f3 0f 1e fa          	endbr64 
    1104:	68 0d 00 00 00       	pushq  $0xd
    1109:	f2 e9 11 ff ff ff    	bnd jmpq 1020 <.plt>
    110f:	90                   	nop
    1110:	f3 0f 1e fa          	endbr64 
    1114:	68 0e 00 00 00       	pushq  $0xe
    1119:	f2 e9 01 ff ff ff    	bnd jmpq 1020 <.plt>
    111f:	90                   	nop
    1120:	f3 0f 1e fa          	endbr64 
    1124:	68 0f 00 00 00       	pushq  $0xf
    1129:	f2 e9 f1 fe ff ff    	bnd jmpq 1020 <.plt>
    112f:	90                   	nop
    1130:	f3 0f 1e fa          	endbr64 
    1134:	68 10 00 00 00       	pushq  $0x10
    1139:	f2 e9 e1 fe ff ff    	bnd jmpq 1020 <.plt>
    113f:	90                   	nop
    1140:	f3 0f 1e fa          	endbr64 
    1144:	68 11 00 00 00       	pushq  $0x11
    1149:	f2 e9 d1 fe ff ff    	bnd jmpq 1020 <.plt>
    114f:	90                   	nop
    1150:	f3 0f 1e fa          	endbr64 
    1154:	68 12 00 00 00       	pushq  $0x12
    1159:	f2 e9 c1 fe ff ff    	bnd jmpq 1020 <.plt>
    115f:	90                   	nop
    1160:	f3 0f 1e fa          	endbr64 
    1164:	68 13 00 00 00       	pushq  $0x13
    1169:	f2 e9 b1 fe ff ff    	bnd jmpq 1020 <.plt>
    116f:	90                   	nop
    1170:	f3 0f 1e fa          	endbr64 
    1174:	68 14 00 00 00       	pushq  $0x14
    1179:	f2 e9 a1 fe ff ff    	bnd jmpq 1020 <.plt>
    117f:	90                   	nop
    1180:	f3 0f 1e fa          	endbr64 
    1184:	68 15 00 00 00       	pushq  $0x15
    1189:	f2 e9 91 fe ff ff    	bnd jmpq 1020 <.plt>
    118f:	90                   	nop

Disassembly of section .plt.got:

0000000000001190 <__cxa_finalize@plt>:
    1190:	f3 0f 1e fa          	endbr64 
    1194:	f2 ff 25 5d 2e 00 00 	bnd jmpq *0x2e5d(%rip)        # 3ff8 <__cxa_finalize@GLIBC_2.2.5>
    119b:	0f 1f 44 00 00       	nopl   0x0(%rax,%rax,1)

Disassembly of section .plt.sec:

00000000000011a0 <wc_SignatureGenerate@plt>:
    11a0:	f3 0f 1e fa          	endbr64 
    11a4:	f2 ff 25 7d 2d 00 00 	bnd jmpq *0x2d7d(%rip)        # 3f28 <wc_SignatureGenerate>
    11ab:	0f 1f 44 00 00       	nopl   0x0(%rax,%rax,1)

00000000000011b0 <free@plt>:
    11b0:	f3 0f 1e fa          	endbr64 
    11b4:	f2 ff 25 75 2d 00 00 	bnd jmpq *0x2d75(%rip)        # 3f30 <free@GLIBC_2.2.5>
    11bb:	0f 1f 44 00 00       	nopl   0x0(%rax,%rax,1)

00000000000011c0 <putchar@plt>:
    11c0:	f3 0f 1e fa          	endbr64 
    11c4:	f2 ff 25 6d 2d 00 00 	bnd jmpq *0x2d6d(%rip)        # 3f38 <putchar@GLIBC_2.2.5>
    11cb:	0f 1f 44 00 00       	nopl   0x0(%rax,%rax,1)

00000000000011d0 <wc_InitRsaKey@plt>:
    11d0:	f3 0f 1e fa          	endbr64 
    11d4:	f2 ff 25 65 2d 00 00 	bnd jmpq *0x2d65(%rip)        # 3f40 <wc_InitRsaKey>
    11db:	0f 1f 44 00 00       	nopl   0x0(%rax,%rax,1)

00000000000011e0 <puts@plt>:
    11e0:	f3 0f 1e fa          	endbr64 
    11e4:	f2 ff 25 5d 2d 00 00 	bnd jmpq *0x2d5d(%rip)        # 3f48 <puts@GLIBC_2.2.5>
    11eb:	0f 1f 44 00 00       	nopl   0x0(%rax,%rax,1)

00000000000011f0 <fread@plt>:
    11f0:	f3 0f 1e fa          	endbr64 
    11f4:	f2 ff 25 55 2d 00 00 	bnd jmpq *0x2d55(%rip)        # 3f50 <fread@GLIBC_2.2.5>
    11fb:	0f 1f 44 00 00       	nopl   0x0(%rax,%rax,1)

0000000000001200 <wc_FreeRsaKey@plt>:
    1200:	f3 0f 1e fa          	endbr64 
    1204:	f2 ff 25 4d 2d 00 00 	bnd jmpq *0x2d4d(%rip)        # 3f58 <wc_FreeRsaKey>
    120b:	0f 1f 44 00 00       	nopl   0x0(%rax,%rax,1)

0000000000001210 <fclose@plt>:
    1210:	f3 0f 1e fa          	endbr64 
    1214:	f2 ff 25 45 2d 00 00 	bnd jmpq *0x2d45(%rip)        # 3f60 <fclose@GLIBC_2.2.5>
    121b:	0f 1f 44 00 00       	nopl   0x0(%rax,%rax,1)

0000000000001220 <wc_FreeRng@plt>:
    1220:	f3 0f 1e fa          	endbr64 
    1224:	f2 ff 25 3d 2d 00 00 	bnd jmpq *0x2d3d(%rip)        # 3f68 <wc_FreeRng>
    122b:	0f 1f 44 00 00       	nopl   0x0(%rax,%rax,1)

0000000000001230 <__stack_chk_fail@plt>:
    1230:	f3 0f 1e fa          	endbr64 
    1234:	f2 ff 25 35 2d 00 00 	bnd jmpq *0x2d35(%rip)        # 3f70 <__stack_chk_fail@GLIBC_2.4>
    123b:	0f 1f 44 00 00       	nopl   0x0(%rax,%rax,1)

0000000000001240 <wc_HashGetDigestSize@plt>:
    1240:	f3 0f 1e fa          	endbr64 
    1244:	f2 ff 25 2d 2d 00 00 	bnd jmpq *0x2d2d(%rip)        # 3f78 <wc_HashGetDigestSize>
    124b:	0f 1f 44 00 00       	nopl   0x0(%rax,%rax,1)

0000000000001250 <printf@plt>:
    1250:	f3 0f 1e fa          	endbr64 
    1254:	f2 ff 25 25 2d 00 00 	bnd jmpq *0x2d25(%rip)        # 3f80 <printf@GLIBC_2.2.5>
    125b:	0f 1f 44 00 00       	nopl   0x0(%rax,%rax,1)

0000000000001260 <__assert_fail@plt>:
    1260:	f3 0f 1e fa          	endbr64 
    1264:	f2 ff 25 1d 2d 00 00 	bnd jmpq *0x2d1d(%rip)        # 3f88 <__assert_fail@GLIBC_2.2.5>
    126b:	0f 1f 44 00 00       	nopl   0x0(%rax,%rax,1)

0000000000001270 <close@plt>:
    1270:	f3 0f 1e fa          	endbr64 
    1274:	f2 ff 25 15 2d 00 00 	bnd jmpq *0x2d15(%rip)        # 3f90 <close@GLIBC_2.2.5>
    127b:	0f 1f 44 00 00       	nopl   0x0(%rax,%rax,1)

0000000000001280 <wc_SignatureVerify@plt>:
    1280:	f3 0f 1e fa          	endbr64 
    1284:	f2 ff 25 0d 2d 00 00 	bnd jmpq *0x2d0d(%rip)        # 3f98 <wc_SignatureVerify>
    128b:	0f 1f 44 00 00       	nopl   0x0(%rax,%rax,1)

0000000000001290 <malloc@plt>:
    1290:	f3 0f 1e fa          	endbr64 
    1294:	f2 ff 25 05 2d 00 00 	bnd jmpq *0x2d05(%rip)        # 3fa0 <malloc@GLIBC_2.2.5>
    129b:	0f 1f 44 00 00       	nopl   0x0(%rax,%rax,1)

00000000000012a0 <open@plt>:
    12a0:	f3 0f 1e fa          	endbr64 
    12a4:	f2 ff 25 fd 2c 00 00 	bnd jmpq *0x2cfd(%rip)        # 3fa8 <open@GLIBC_2.2.5>
    12ab:	0f 1f 44 00 00       	nopl   0x0(%rax,%rax,1)

00000000000012b0 <fopen@plt>:
    12b0:	f3 0f 1e fa          	endbr64 
    12b4:	f2 ff 25 f5 2c 00 00 	bnd jmpq *0x2cf5(%rip)        # 3fb0 <fopen@GLIBC_2.2.5>
    12bb:	0f 1f 44 00 00       	nopl   0x0(%rax,%rax,1)

00000000000012c0 <wc_InitRng@plt>:
    12c0:	f3 0f 1e fa          	endbr64 
    12c4:	f2 ff 25 ed 2c 00 00 	bnd jmpq *0x2ced(%rip)        # 3fb8 <wc_InitRng>
    12cb:	0f 1f 44 00 00       	nopl   0x0(%rax,%rax,1)

00000000000012d0 <pread@plt>:
    12d0:	f3 0f 1e fa          	endbr64 
    12d4:	f2 ff 25 e5 2c 00 00 	bnd jmpq *0x2ce5(%rip)        # 3fc0 <pread@GLIBC_2.2.5>
    12db:	0f 1f 44 00 00       	nopl   0x0(%rax,%rax,1)

00000000000012e0 <wc_RsaPrivateKeyDecode@plt>:
    12e0:	f3 0f 1e fa          	endbr64 
    12e4:	f2 ff 25 dd 2c 00 00 	bnd jmpq *0x2cdd(%rip)        # 3fc8 <wc_RsaPrivateKeyDecode>
    12eb:	0f 1f 44 00 00       	nopl   0x0(%rax,%rax,1)

00000000000012f0 <wc_SignatureGetSize@plt>:
    12f0:	f3 0f 1e fa          	endbr64 
    12f4:	f2 ff 25 d5 2c 00 00 	bnd jmpq *0x2cd5(%rip)        # 3fd0 <wc_SignatureGetSize>
    12fb:	0f 1f 44 00 00       	nopl   0x0(%rax,%rax,1)

Disassembly of section .text:

0000000000001300 <_start>:
    1300:	f3 0f 1e fa          	endbr64 
    1304:	31 ed                	xor    %ebp,%ebp
    1306:	49 89 d1             	mov    %rdx,%r9
    1309:	5e                   	pop    %rsi
    130a:	48 89 e2             	mov    %rsp,%rdx
    130d:	48 83 e4 f0          	and    $0xfffffffffffffff0,%rsp
    1311:	50                   	push   %rax
    1312:	54                   	push   %rsp
    1313:	4c 8d 05 16 0a 00 00 	lea    0xa16(%rip),%r8        # 1d30 <__libc_csu_fini>
    131a:	48 8d 0d 9f 09 00 00 	lea    0x99f(%rip),%rcx        # 1cc0 <__libc_csu_init>
    1321:	48 8d 3d 46 08 00 00 	lea    0x846(%rip),%rdi        # 1b6e <main>
    1328:	ff 15 b2 2c 00 00    	callq  *0x2cb2(%rip)        # 3fe0 <__libc_start_main@GLIBC_2.2.5>
    132e:	f4                   	hlt    
    132f:	90                   	nop

0000000000001330 <deregister_tm_clones>:
    1330:	48 8d 3d d9 2c 00 00 	lea    0x2cd9(%rip),%rdi        # 4010 <__TMC_END__>
    1337:	48 8d 05 d2 2c 00 00 	lea    0x2cd2(%rip),%rax        # 4010 <__TMC_END__>
    133e:	48 39 f8             	cmp    %rdi,%rax
    1341:	74 15                	je     1358 <deregister_tm_clones+0x28>
    1343:	48 8b 05 8e 2c 00 00 	mov    0x2c8e(%rip),%rax        # 3fd8 <_ITM_deregisterTMCloneTable>
    134a:	48 85 c0             	test   %rax,%rax
    134d:	74 09                	je     1358 <deregister_tm_clones+0x28>
    134f:	ff e0                	jmpq   *%rax
    1351:	0f 1f 80 00 00 00 00 	nopl   0x0(%rax)
    1358:	c3                   	retq   
    1359:	0f 1f 80 00 00 00 00 	nopl   0x0(%rax)

0000000000001360 <register_tm_clones>:
    1360:	48 8d 3d a9 2c 00 00 	lea    0x2ca9(%rip),%rdi        # 4010 <__TMC_END__>
    1367:	48 8d 35 a2 2c 00 00 	lea    0x2ca2(%rip),%rsi        # 4010 <__TMC_END__>
    136e:	48 29 fe             	sub    %rdi,%rsi
    1371:	48 89 f0             	mov    %rsi,%rax
    1374:	48 c1 ee 3f          	shr    $0x3f,%rsi
    1378:	48 c1 f8 03          	sar    $0x3,%rax
    137c:	48 01 c6             	add    %rax,%rsi
    137f:	48 d1 fe             	sar    %rsi
    1382:	74 14                	je     1398 <register_tm_clones+0x38>
    1384:	48 8b 05 65 2c 00 00 	mov    0x2c65(%rip),%rax        # 3ff0 <_ITM_registerTMCloneTable>
    138b:	48 85 c0             	test   %rax,%rax
    138e:	74 08                	je     1398 <register_tm_clones+0x38>
    1390:	ff e0                	jmpq   *%rax
    1392:	66 0f 1f 44 00 00    	nopw   0x0(%rax,%rax,1)
    1398:	c3                   	retq   
    1399:	0f 1f 80 00 00 00 00 	nopl   0x0(%rax)

00000000000013a0 <__do_global_dtors_aux>:
    13a0:	f3 0f 1e fa          	endbr64 
    13a4:	80 3d 75 2c 00 00 00 	cmpb   $0x0,0x2c75(%rip)        # 4020 <completed.8061>
    13ab:	75 2b                	jne    13d8 <__do_global_dtors_aux+0x38>
    13ad:	55                   	push   %rbp
    13ae:	48 83 3d 42 2c 00 00 	cmpq   $0x0,0x2c42(%rip)        # 3ff8 <__cxa_finalize@GLIBC_2.2.5>
    13b5:	00 
    13b6:	48 89 e5             	mov    %rsp,%rbp
    13b9:	74 0c                	je     13c7 <__do_global_dtors_aux+0x27>
    13bb:	48 8b 3d 46 2c 00 00 	mov    0x2c46(%rip),%rdi        # 4008 <__dso_handle>
    13c2:	e8 c9 fd ff ff       	callq  1190 <__cxa_finalize@plt>
    13c7:	e8 64 ff ff ff       	callq  1330 <deregister_tm_clones>
    13cc:	c6 05 4d 2c 00 00 01 	movb   $0x1,0x2c4d(%rip)        # 4020 <completed.8061>
    13d3:	5d                   	pop    %rbp
    13d4:	c3                   	retq   
    13d5:	0f 1f 00             	nopl   (%rax)
    13d8:	c3                   	retq   
    13d9:	0f 1f 80 00 00 00 00 	nopl   0x0(%rax)

00000000000013e0 <frame_dummy>:
    13e0:	f3 0f 1e fa          	endbr64 
    13e4:	e9 77 ff ff ff       	jmpq   1360 <register_tm_clones>

00000000000013e9 <bit_flip>:
//#include <stdio.h>

#define RSA_KEY_SIZE    2048
#define DER_FILE_BUFFER 2048 /* max DER size */
#define WOLFSSL_CHECK_SIG_FAULTS
void bit_flip(byte *target,int i){
    13e9:	f3 0f 1e fa          	endbr64 
    13ed:	55                   	push   %rbp
    13ee:	48 89 e5             	mov    %rsp,%rbp
    13f1:	48 83 ec 20          	sub    $0x20,%rsp
    13f5:	48 89 7d e8          	mov    %rdi,-0x18(%rbp)
    13f9:	89 75 e4             	mov    %esi,-0x1c(%rbp)
    printf("bit flip addr: %p\n",target);
    13fc:	48 8b 45 e8          	mov    -0x18(%rbp),%rax
    1400:	48 89 c6             	mov    %rax,%rsi
    1403:	48 8d 3d fe 0b 00 00 	lea    0xbfe(%rip),%rdi        # 2008 <_IO_stdin_used+0x8>
    140a:	b8 00 00 00 00       	mov    $0x0,%eax
    140f:	e8 3c fe ff ff       	callq  1250 <printf@plt>
    int pos=i/(sizeof(byte)*8);
    1414:	8b 45 e4             	mov    -0x1c(%rbp),%eax
    1417:	48 98                	cltq   
    1419:	48 c1 e8 03          	shr    $0x3,%rax
    141d:	89 45 f8             	mov    %eax,-0x8(%rbp)
    int num=i%(sizeof(byte)*8);
    1420:	8b 45 e4             	mov    -0x1c(%rbp),%eax
    1423:	83 e0 07             	and    $0x7,%eax
    1426:	89 45 fc             	mov    %eax,-0x4(%rbp)
    //printf("pos,num: %d %d\n",pos,num);
    byte tmp=1;
    1429:	c6 45 f3 01          	movb   $0x1,-0xd(%rbp)
    for(int k=0;k<num;k++){
    142d:	c7 45 f4 00 00 00 00 	movl   $0x0,-0xc(%rbp)
    1434:	eb 07                	jmp    143d <bit_flip+0x54>
        tmp=tmp*2;
    1436:	d0 65 f3             	shlb   -0xd(%rbp)
    for(int k=0;k<num;k++){
    1439:	83 45 f4 01          	addl   $0x1,-0xc(%rbp)
    143d:	8b 45 f4             	mov    -0xc(%rbp),%eax
    1440:	3b 45 fc             	cmp    -0x4(%rbp),%eax
    1443:	7c f1                	jl     1436 <bit_flip+0x4d>
    }
    target[pos]=target[pos]^tmp;
    1445:	8b 45 f8             	mov    -0x8(%rbp),%eax
    1448:	48 63 d0             	movslq %eax,%rdx
    144b:	48 8b 45 e8          	mov    -0x18(%rbp),%rax
    144f:	48 01 d0             	add    %rdx,%rax
    1452:	0f b6 00             	movzbl (%rax),%eax
    1455:	8b 55 f8             	mov    -0x8(%rbp),%edx
    1458:	48 63 ca             	movslq %edx,%rcx
    145b:	48 8b 55 e8          	mov    -0x18(%rbp),%rdx
    145f:	48 01 ca             	add    %rcx,%rdx
    1462:	32 45 f3             	xor    -0xd(%rbp),%al
    1465:	88 02                	mov    %al,(%rdx)
}
    1467:	90                   	nop
    1468:	c9                   	leaveq 
    1469:	c3                   	retq   

000000000000146a <getPage>:
uint64_t getPage(uint8_t* virtual_address) {
    146a:	f3 0f 1e fa          	endbr64 
    146e:	55                   	push   %rbp
    146f:	48 89 e5             	mov    %rsp,%rbp
    1472:	48 83 ec 30          	sub    $0x30,%rsp
    1476:	48 89 7d d8          	mov    %rdi,-0x28(%rbp)
    147a:	64 48 8b 04 25 28 00 	mov    %fs:0x28,%rax
    1481:	00 00 
    1483:	48 89 45 f8          	mov    %rax,-0x8(%rbp)
    1487:	31 c0                	xor    %eax,%eax
    int pagemap = open("/proc/self/pagemap", O_RDONLY);
    1489:	be 00 00 00 00       	mov    $0x0,%esi
    148e:	48 8d 3d 86 0b 00 00 	lea    0xb86(%rip),%rdi        # 201b <_IO_stdin_used+0x1b>
    1495:	b8 00 00 00 00       	mov    $0x0,%eax
    149a:	e8 01 fe ff ff       	callq  12a0 <open@plt>
    149f:	89 45 e0             	mov    %eax,-0x20(%rbp)
    assert(pagemap != -1);
    14a2:	83 7d e0 ff          	cmpl   $0xffffffff,-0x20(%rbp)
    14a6:	75 1f                	jne    14c7 <getPage+0x5d>
    14a8:	48 8d 0d e9 0c 00 00 	lea    0xce9(%rip),%rcx        # 2198 <__PRETTY_FUNCTION__.16421>
    14af:	ba 41 00 00 00       	mov    $0x41,%edx
    14b4:	48 8d 35 73 0b 00 00 	lea    0xb73(%rip),%rsi        # 202e <_IO_stdin_used+0x2e>
    14bb:	48 8d 3d 77 0b 00 00 	lea    0xb77(%rip),%rdi        # 2039 <_IO_stdin_used+0x39>
    14c2:	e8 99 fd ff ff       	callq  1260 <__assert_fail@plt>

    uint64_t value;
    int got = pread(pagemap, &value, 8, ((uintptr_t)virtual_address / 0x1000) * 8);
    14c7:	48 8b 45 d8          	mov    -0x28(%rbp),%rax
    14cb:	48 c1 e8 0c          	shr    $0xc,%rax
    14cf:	48 c1 e0 03          	shl    $0x3,%rax
    14d3:	48 89 c2             	mov    %rax,%rdx
    14d6:	48 8d 75 e8          	lea    -0x18(%rbp),%rsi
    14da:	8b 45 e0             	mov    -0x20(%rbp),%eax
    14dd:	48 89 d1             	mov    %rdx,%rcx
    14e0:	ba 08 00 00 00       	mov    $0x8,%edx
    14e5:	89 c7                	mov    %eax,%edi
    14e7:	e8 e4 fd ff ff       	callq  12d0 <pread@plt>
    14ec:	89 45 e4             	mov    %eax,-0x1c(%rbp)
    assert(got == 8);
    14ef:	83 7d e4 08          	cmpl   $0x8,-0x1c(%rbp)
    14f3:	74 1f                	je     1514 <getPage+0xaa>
    14f5:	48 8d 0d 9c 0c 00 00 	lea    0xc9c(%rip),%rcx        # 2198 <__PRETTY_FUNCTION__.16421>
    14fc:	ba 45 00 00 00       	mov    $0x45,%edx
    1501:	48 8d 35 26 0b 00 00 	lea    0xb26(%rip),%rsi        # 202e <_IO_stdin_used+0x2e>
    1508:	48 8d 3d 38 0b 00 00 	lea    0xb38(%rip),%rdi        # 2047 <_IO_stdin_used+0x47>
    150f:	e8 4c fd ff ff       	callq  1260 <__assert_fail@plt>

    uint64_t page_frame_number = value & ((1ULL << 54) - 1);
    1514:	48 8b 45 e8          	mov    -0x18(%rbp),%rax
    1518:	48 ba ff ff ff ff ff 	movabs $0x3fffffffffffff,%rdx
    151f:	ff 3f 00 
    1522:	48 21 d0             	and    %rdx,%rax
    1525:	48 89 45 f0          	mov    %rax,-0x10(%rbp)
    assert(page_frame_number != 0);
    1529:	48 83 7d f0 00       	cmpq   $0x0,-0x10(%rbp)
    152e:	75 1f                	jne    154f <getPage+0xe5>
    1530:	48 8d 0d 61 0c 00 00 	lea    0xc61(%rip),%rcx        # 2198 <__PRETTY_FUNCTION__.16421>
    1537:	ba 48 00 00 00       	mov    $0x48,%edx
    153c:	48 8d 35 eb 0a 00 00 	lea    0xaeb(%rip),%rsi        # 202e <_IO_stdin_used+0x2e>
    1543:	48 8d 3d 06 0b 00 00 	lea    0xb06(%rip),%rdi        # 2050 <_IO_stdin_used+0x50>
    154a:	e8 11 fd ff ff       	callq  1260 <__assert_fail@plt>
    close(pagemap);
    154f:	8b 45 e0             	mov    -0x20(%rbp),%eax
    1552:	89 c7                	mov    %eax,%edi
    1554:	e8 17 fd ff ff       	callq  1270 <close@plt>
    return page_frame_number;
    1559:	48 8b 45 f0          	mov    -0x10(%rbp),%rax
}
    155d:	48 8b 4d f8          	mov    -0x8(%rbp),%rcx
    1561:	64 48 33 0c 25 28 00 	xor    %fs:0x28,%rcx
    1568:	00 00 
    156a:	74 05                	je     1571 <getPage+0x107>
    156c:	e8 bf fc ff ff       	callq  1230 <__stack_chk_fail@plt>
    1571:	c9                   	leaveq 
    1572:	c3                   	retq   

0000000000001573 <compare_diff>:


int compare_diff(mp_int *p,mp_int* q){
    1573:	f3 0f 1e fa          	endbr64 
    1577:	55                   	push   %rbp
    1578:	48 89 e5             	mov    %rsp,%rbp
    157b:	48 89 7d d8          	mov    %rdi,-0x28(%rbp)
    157f:	48 89 75 d0          	mov    %rsi,-0x30(%rbp)
    //printf("used: %d\n",p->used);
    int N=0;
    1583:	c7 45 ec 00 00 00 00 	movl   $0x0,-0x14(%rbp)
    for(int i=0;i<16;i++){
    158a:	c7 45 f0 00 00 00 00 	movl   $0x0,-0x10(%rbp)
    1591:	eb 65                	jmp    15f8 <compare_diff+0x85>
        uint64_t tp=p->dp[i]^q->dp[i];
    1593:	48 8b 45 d8          	mov    -0x28(%rbp),%rax
    1597:	8b 55 f0             	mov    -0x10(%rbp),%edx
    159a:	48 63 d2             	movslq %edx,%rdx
    159d:	48 8b 4c d0 08       	mov    0x8(%rax,%rdx,8),%rcx
    15a2:	48 8b 45 d0          	mov    -0x30(%rbp),%rax
    15a6:	8b 55 f0             	mov    -0x10(%rbp),%edx
    15a9:	48 63 d2             	movslq %edx,%rdx
    15ac:	48 8b 44 d0 08       	mov    0x8(%rax,%rdx,8),%rax
    15b1:	48 31 c8             	xor    %rcx,%rax
    15b4:	48 89 45 f8          	mov    %rax,-0x8(%rbp)
        if(tp!=0){
    15b8:	48 83 7d f8 00       	cmpq   $0x0,-0x8(%rbp)
    15bd:	74 31                	je     15f0 <compare_diff+0x7d>
            for(int j=1;j<=64;j++){
    15bf:	c7 45 f4 01 00 00 00 	movl   $0x1,-0xc(%rbp)
    15c6:	eb 22                	jmp    15ea <compare_diff+0x77>
                if((tp>>j)==0)return j+N;
    15c8:	8b 45 f4             	mov    -0xc(%rbp),%eax
    15cb:	48 8b 55 f8          	mov    -0x8(%rbp),%rdx
    15cf:	89 c1                	mov    %eax,%ecx
    15d1:	48 d3 ea             	shr    %cl,%rdx
    15d4:	48 89 d0             	mov    %rdx,%rax
    15d7:	48 85 c0             	test   %rax,%rax
    15da:	75 0a                	jne    15e6 <compare_diff+0x73>
    15dc:	8b 55 f4             	mov    -0xc(%rbp),%edx
    15df:	8b 45 ec             	mov    -0x14(%rbp),%eax
    15e2:	01 d0                	add    %edx,%eax
    15e4:	eb 1d                	jmp    1603 <compare_diff+0x90>
            for(int j=1;j<=64;j++){
    15e6:	83 45 f4 01          	addl   $0x1,-0xc(%rbp)
    15ea:	83 7d f4 40          	cmpl   $0x40,-0xc(%rbp)
    15ee:	7e d8                	jle    15c8 <compare_diff+0x55>
            }
        }
        N+=64;
    15f0:	83 45 ec 40          	addl   $0x40,-0x14(%rbp)
    for(int i=0;i<16;i++){
    15f4:	83 45 f0 01          	addl   $0x1,-0x10(%rbp)
    15f8:	83 7d f0 0f          	cmpl   $0xf,-0x10(%rbp)
    15fc:	7e 95                	jle    1593 <compare_diff+0x20>
    }
    return -1;
    15fe:	b8 ff ff ff ff       	mov    $0xffffffff,%eax
}
    1603:	5d                   	pop    %rbp
    1604:	c3                   	retq   

0000000000001605 <hexdump>:
void hexdump(const void *buffer, word32 len, byte cols)
{
    1605:	f3 0f 1e fa          	endbr64 
    1609:	55                   	push   %rbp
    160a:	48 89 e5             	mov    %rsp,%rbp
    160d:	48 83 ec 20          	sub    $0x20,%rsp
    1611:	48 89 7d e8          	mov    %rdi,-0x18(%rbp)
    1615:	89 75 e4             	mov    %esi,-0x1c(%rbp)
    1618:	89 d0                	mov    %edx,%eax
    161a:	88 45 e0             	mov    %al,-0x20(%rbp)
   word32 i;

   for(i = 0; i < len + ((len % cols) ? (cols - len % cols) : 0); i++)
    161d:	c7 45 fc 00 00 00 00 	movl   $0x0,-0x4(%rbp)
    1624:	eb 2f                	jmp    1655 <hexdump+0x50>
   {
      /* print hex data */
      if(i < len) {
    1626:	8b 45 fc             	mov    -0x4(%rbp),%eax
    1629:	3b 45 e4             	cmp    -0x1c(%rbp),%eax
    162c:	73 23                	jae    1651 <hexdump+0x4c>
         printf("%02X", ((byte*)buffer)[i] & 0xFF);
    162e:	8b 55 fc             	mov    -0x4(%rbp),%edx
    1631:	48 8b 45 e8          	mov    -0x18(%rbp),%rax
    1635:	48 01 d0             	add    %rdx,%rax
    1638:	0f b6 00             	movzbl (%rax),%eax
    163b:	0f b6 c0             	movzbl %al,%eax
    163e:	89 c6                	mov    %eax,%esi
    1640:	48 8d 3d 20 0a 00 00 	lea    0xa20(%rip),%rdi        # 2067 <_IO_stdin_used+0x67>
    1647:	b8 00 00 00 00       	mov    $0x0,%eax
    164c:	e8 ff fb ff ff       	callq  1250 <printf@plt>
   for(i = 0; i < len + ((len % cols) ? (cols - len % cols) : 0); i++)
    1651:	83 45 fc 01          	addl   $0x1,-0x4(%rbp)
    1655:	0f b6 4d e0          	movzbl -0x20(%rbp),%ecx
    1659:	8b 45 e4             	mov    -0x1c(%rbp),%eax
    165c:	ba 00 00 00 00       	mov    $0x0,%edx
    1661:	f7 f1                	div    %ecx
    1663:	89 d0                	mov    %edx,%eax
    1665:	85 c0                	test   %eax,%eax
    1667:	74 1a                	je     1683 <hexdump+0x7e>
    1669:	0f b6 4d e0          	movzbl -0x20(%rbp),%ecx
    166d:	0f b6 75 e0          	movzbl -0x20(%rbp),%esi
    1671:	8b 45 e4             	mov    -0x1c(%rbp),%eax
    1674:	ba 00 00 00 00       	mov    $0x0,%edx
    1679:	f7 f6                	div    %esi
    167b:	89 d0                	mov    %edx,%eax
    167d:	29 c1                	sub    %eax,%ecx
    167f:	89 ca                	mov    %ecx,%edx
    1681:	eb 05                	jmp    1688 <hexdump+0x83>
    1683:	ba 00 00 00 00       	mov    $0x0,%edx
    1688:	8b 45 e4             	mov    -0x1c(%rbp),%eax
    168b:	01 d0                	add    %edx,%eax
    168d:	39 45 fc             	cmp    %eax,-0x4(%rbp)
    1690:	72 94                	jb     1626 <hexdump+0x21>
      }

      //if(i % cols == (cols - 1)) {
      //}
   }
         printf("\n");
    1692:	bf 0a 00 00 00       	mov    $0xa,%edi
    1697:	e8 24 fb ff ff       	callq  11c0 <putchar@plt>
}
    169c:	90                   	nop
    169d:	c9                   	leaveq 
    169e:	c3                   	retq   

000000000000169f <rsa_load_der_file>:

#ifndef NO_RSA
int rsa_load_der_file(const char* derFile, RsaKey *rsaKey)
{
    169f:	f3 0f 1e fa          	endbr64 
    16a3:	55                   	push   %rbp
    16a4:	48 89 e5             	mov    %rsp,%rbp
    16a7:	4c 8d 9c 24 00 b0 ff 	lea    -0x5000(%rsp),%r11
    16ae:	ff 
    16af:	48 81 ec 00 10 00 00 	sub    $0x1000,%rsp
    16b6:	48 83 0c 24 00       	orq    $0x0,(%rsp)
    16bb:	4c 39 dc             	cmp    %r11,%rsp
    16be:	75 ef                	jne    16af <rsa_load_der_file+0x10>
    16c0:	48 81 ec 00 0e 00 00 	sub    $0xe00,%rsp
    16c7:	48 89 bd 08 a2 ff ff 	mov    %rdi,-0x5df8(%rbp)
    16ce:	48 89 b5 00 a2 ff ff 	mov    %rsi,-0x5e00(%rbp)
    16d5:	64 48 8b 04 25 28 00 	mov    %fs:0x28,%rax
    16dc:	00 00 
    16de:	48 89 45 f8          	mov    %rax,-0x8(%rbp)
    16e2:	31 c0                	xor    %eax,%eax
    int ret = EXIT_FAILURE;
    16e4:	c7 85 14 a2 ff ff 01 	movl   $0x1,-0x5dec(%rbp)
    16eb:	00 00 00 
    FILE *file;
    byte *buffer = NULL;
    16ee:	48 c7 85 20 a2 ff ff 	movq   $0x0,-0x5de0(%rbp)
    16f5:	00 00 00 00 
    word32 bufSize = DER_FILE_BUFFER;
    16f9:	c7 85 1c a2 ff ff 00 	movl   $0x800,-0x5de4(%rbp)
    1700:	08 00 00 
    word32 bytes = 0;
    1703:	c7 85 18 a2 ff ff 00 	movl   $0x0,-0x5de8(%rbp)
    170a:	00 00 00 
    word32 idx = 0;
    170d:	c7 85 10 a2 ff ff 00 	movl   $0x0,-0x5df0(%rbp)
    1714:	00 00 00 
    int junk[6000];

    file = fopen(derFile, "rb");
    1717:	48 8b 85 08 a2 ff ff 	mov    -0x5df8(%rbp),%rax
    171e:	48 8d 35 47 09 00 00 	lea    0x947(%rip),%rsi        # 206c <_IO_stdin_used+0x6c>
    1725:	48 89 c7             	mov    %rax,%rdi
    1728:	e8 83 fb ff ff       	callq  12b0 <fopen@plt>
    172d:	48 89 85 28 a2 ff ff 	mov    %rax,-0x5dd8(%rbp)
    if (file) {
    1734:	48 83 bd 28 a2 ff ff 	cmpq   $0x0,-0x5dd8(%rbp)
    173b:	00 
    173c:	74 55                	je     1793 <rsa_load_der_file+0xf4>
        buffer = malloc(bufSize);
    173e:	8b 85 1c a2 ff ff    	mov    -0x5de4(%rbp),%eax
    1744:	48 89 c7             	mov    %rax,%rdi
    1747:	e8 44 fb ff ff       	callq  1290 <malloc@plt>
    174c:	48 89 85 20 a2 ff ff 	mov    %rax,-0x5de0(%rbp)
        if(buffer) {
    1753:	48 83 bd 20 a2 ff ff 	cmpq   $0x0,-0x5de0(%rbp)
    175a:	00 
    175b:	74 36                	je     1793 <rsa_load_der_file+0xf4>
            bytes = fread(buffer, 1, bufSize, file);
    175d:	8b 95 1c a2 ff ff    	mov    -0x5de4(%rbp),%edx
    1763:	48 8b 8d 28 a2 ff ff 	mov    -0x5dd8(%rbp),%rcx
    176a:	48 8b 85 20 a2 ff ff 	mov    -0x5de0(%rbp),%rax
    1771:	be 01 00 00 00       	mov    $0x1,%esi
    1776:	48 89 c7             	mov    %rax,%rdi
    1779:	e8 72 fa ff ff       	callq  11f0 <fread@plt>
    177e:	89 85 18 a2 ff ff    	mov    %eax,-0x5de8(%rbp)
            fclose(file);
    1784:	48 8b 85 28 a2 ff ff 	mov    -0x5dd8(%rbp),%rax
    178b:	48 89 c7             	mov    %rax,%rdi
    178e:	e8 7d fa ff ff       	callq  1210 <fclose@plt>
        }
    }

    if(buffer != NULL && bytes > 0) {
    1793:	48 83 bd 20 a2 ff ff 	cmpq   $0x0,-0x5de0(%rbp)
    179a:	00 
    179b:	74 32                	je     17cf <rsa_load_der_file+0x130>
    179d:	83 bd 18 a2 ff ff 00 	cmpl   $0x0,-0x5de8(%rbp)
    17a4:	74 29                	je     17cf <rsa_load_der_file+0x130>
        ret = wc_RsaPrivateKeyDecode(buffer, &idx, rsaKey, (word32)bytes);
    17a6:	8b 8d 18 a2 ff ff    	mov    -0x5de8(%rbp),%ecx
    17ac:	48 8b 95 00 a2 ff ff 	mov    -0x5e00(%rbp),%rdx
    17b3:	48 8d b5 10 a2 ff ff 	lea    -0x5df0(%rbp),%rsi
    17ba:	48 8b 85 20 a2 ff ff 	mov    -0x5de0(%rbp),%rax
    17c1:	48 89 c7             	mov    %rax,%rdi
    17c4:	e8 17 fb ff ff       	callq  12e0 <wc_RsaPrivateKeyDecode@plt>
    17c9:	89 85 14 a2 ff ff    	mov    %eax,-0x5dec(%rbp)
    }

    if(buffer) {
    17cf:	48 83 bd 20 a2 ff ff 	cmpq   $0x0,-0x5de0(%rbp)
    17d6:	00 
    17d7:	74 0f                	je     17e8 <rsa_load_der_file+0x149>
        free(buffer);
    17d9:	48 8b 85 20 a2 ff ff 	mov    -0x5de0(%rbp),%rax
    17e0:	48 89 c7             	mov    %rax,%rdi
    17e3:	e8 c8 f9 ff ff       	callq  11b0 <free@plt>
    }
    return ret;
    17e8:	8b 85 14 a2 ff ff    	mov    -0x5dec(%rbp),%eax
}
    17ee:	48 8b 55 f8          	mov    -0x8(%rbp),%rdx
    17f2:	64 48 33 14 25 28 00 	xor    %fs:0x28,%rdx
    17f9:	00 00 
    17fb:	74 05                	je     1802 <rsa_load_der_file+0x163>
    17fd:	e8 2e fa ff ff       	callq  1230 <__stack_chk_fail@plt>
    1802:	c9                   	leaveq 
    1803:	c3                   	retq   

0000000000001804 <rsa_sign_verify_test>:

RsaKey rsaKey,rsaKey2;
int rsa_sign_verify_test(enum wc_HashType hash_type, enum wc_SignatureType sig_type,
    byte* fileBuf, int fileLen, byte* verifyFileBuf, int verifyFileLen)
{
    1804:	f3 0f 1e fa          	endbr64 
    1808:	55                   	push   %rbp
    1809:	48 89 e5             	mov    %rsp,%rbp
    180c:	48 83 ec 70          	sub    $0x70,%rsp
    1810:	89 7d ac             	mov    %edi,-0x54(%rbp)
    1813:	89 75 a8             	mov    %esi,-0x58(%rbp)
    1816:	48 89 55 a0          	mov    %rdx,-0x60(%rbp)
    181a:	89 4d 9c             	mov    %ecx,-0x64(%rbp)
    181d:	4c 89 45 90          	mov    %r8,-0x70(%rbp)
    1821:	44 89 4d 98          	mov    %r9d,-0x68(%rbp)
    1825:	64 48 8b 04 25 28 00 	mov    %fs:0x28,%rax
    182c:	00 00 
    182e:	48 89 45 f8          	mov    %rax,-0x8(%rbp)
    1832:	31 c0                	xor    %eax,%eax
    int ret;
    WC_RNG rng;
    byte *sigBuf = NULL;
    1834:	48 c7 45 c8 00 00 00 	movq   $0x0,-0x38(%rbp)
    183b:	00 
    word32 sigLen;


    /* Init */
    ret = wc_InitRng(&rng);
    183c:	48 8d 45 d0          	lea    -0x30(%rbp),%rax
    1840:	48 89 c7             	mov    %rax,%rdi
    1843:	e8 78 fa ff ff       	callq  12c0 <wc_InitRng@plt>
    1848:	89 45 bc             	mov    %eax,-0x44(%rbp)
    if (ret != 0) {
    184b:	83 7d bc 00          	cmpl   $0x0,-0x44(%rbp)
    184f:	74 27                	je     1878 <rsa_sign_verify_test+0x74>
        printf("Init RNG failed! %d\n", ret);
    1851:	8b 45 bc             	mov    -0x44(%rbp),%eax
    1854:	89 c6                	mov    %eax,%esi
    1856:	48 8d 3d 12 08 00 00 	lea    0x812(%rip),%rdi        # 206f <_IO_stdin_used+0x6f>
    185d:	b8 00 00 00 00       	mov    $0x0,%eax
    1862:	e8 e9 f9 ff ff       	callq  1250 <printf@plt>
        ret = EXIT_FAILURE;
    1867:	c7 45 bc 01 00 00 00 	movl   $0x1,-0x44(%rbp)
        return 0;
    186e:	b8 00 00 00 00       	mov    $0x0,%eax
    1873:	e9 e0 02 00 00       	jmpq   1b58 <rsa_sign_verify_test+0x354>
    }

    ret = wc_InitRsaKey(&rsaKey, NULL);
    1878:	be 00 00 00 00       	mov    $0x0,%esi
    187d:	48 8d 3d bc 48 00 00 	lea    0x48bc(%rip),%rdi        # 6140 <rsaKey>
    1884:	e8 47 f9 ff ff       	callq  11d0 <wc_InitRsaKey@plt>
    1889:	89 45 bc             	mov    %eax,-0x44(%rbp)
    if (ret != 0) {
    188c:	83 7d bc 00          	cmpl   $0x0,-0x44(%rbp)
    1890:	74 27                	je     18b9 <rsa_sign_verify_test+0xb5>
        printf("Init RSA key failed! %d\n", ret);
    1892:	8b 45 bc             	mov    -0x44(%rbp),%eax
    1895:	89 c6                	mov    %eax,%esi
    1897:	48 8d 3d e6 07 00 00 	lea    0x7e6(%rip),%rdi        # 2084 <_IO_stdin_used+0x84>
    189e:	b8 00 00 00 00       	mov    $0x0,%eax
    18a3:	e8 a8 f9 ff ff       	callq  1250 <printf@plt>
        ret = EXIT_FAILURE;
    18a8:	c7 45 bc 01 00 00 00 	movl   $0x1,-0x44(%rbp)
        return 0;
    18af:	b8 00 00 00 00       	mov    $0x0,%eax
    18b4:	e9 9f 02 00 00       	jmpq   1b58 <rsa_sign_verify_test+0x354>
    }
    ret = wc_InitRsaKey(&rsaKey2, NULL);
    18b9:	be 00 00 00 00       	mov    $0x0,%esi
    18be:	48 8d 3d 7b 27 00 00 	lea    0x277b(%rip),%rdi        # 4040 <rsaKey2>
    18c5:	e8 06 f9 ff ff       	callq  11d0 <wc_InitRsaKey@plt>
    18ca:	89 45 bc             	mov    %eax,-0x44(%rbp)
    if (ret != 0) {
    18cd:	83 7d bc 00          	cmpl   $0x0,-0x44(%rbp)
    18d1:	74 27                	je     18fa <rsa_sign_verify_test+0xf6>
        printf("Init RSA key failed! %d\n", ret);
    18d3:	8b 45 bc             	mov    -0x44(%rbp),%eax
    18d6:	89 c6                	mov    %eax,%esi
    18d8:	48 8d 3d a5 07 00 00 	lea    0x7a5(%rip),%rdi        # 2084 <_IO_stdin_used+0x84>
    18df:	b8 00 00 00 00       	mov    $0x0,%eax
    18e4:	e8 67 f9 ff ff       	callq  1250 <printf@plt>
        ret = EXIT_FAILURE;
    18e9:	c7 45 bc 01 00 00 00 	movl   $0x1,-0x44(%rbp)
        return 0;
    18f0:	b8 00 00 00 00       	mov    $0x0,%eax
    18f5:	e9 5e 02 00 00       	jmpq   1b58 <rsa_sign_verify_test+0x354>
    }
    
#undef WOLFSSL_KEY_GEN

    /* Load cert from file client-key.der */
    rsa_load_der_file("./rsa1024.der", &rsaKey);
    18fa:	48 8d 35 3f 48 00 00 	lea    0x483f(%rip),%rsi        # 6140 <rsaKey>
    1901:	48 8d 3d 95 07 00 00 	lea    0x795(%rip),%rdi        # 209d <_IO_stdin_used+0x9d>
    1908:	e8 92 fd ff ff       	callq  169f <rsa_load_der_file>
    rsa_load_der_file("./rsa1024.der", &rsaKey2);
    190d:	48 8d 35 2c 27 00 00 	lea    0x272c(%rip),%rsi        # 4040 <rsaKey2>
    1914:	48 8d 3d 82 07 00 00 	lea    0x782(%rip),%rdi        # 209d <_IO_stdin_used+0x9d>
    191b:	e8 7f fd ff ff       	callq  169f <rsa_load_der_file>
    //printf("rsa key dP, dQ: %d %d\n",rsaKey.dP.used,rsaKey.dQ.used);
    int keylen=1024;
    1920:	c7 45 c0 00 04 00 00 	movl   $0x400,-0x40(%rbp)
    printf("e addr: %p\n",&rsaKey.e);
    1927:	48 8d 35 22 4c 00 00 	lea    0x4c22(%rip),%rsi        # 6550 <rsaKey+0x410>
    192e:	48 8d 3d 76 07 00 00 	lea    0x776(%rip),%rdi        # 20ab <_IO_stdin_used+0xab>
    1935:	b8 00 00 00 00       	mov    $0x0,%eax
    193a:	e8 11 f9 ff ff       	callq  1250 <printf@plt>
    printf("flip addr: %p\n",rsaKey.e.dp);
    193f:	48 8d 35 12 4c 00 00 	lea    0x4c12(%rip),%rsi        # 6558 <rsaKey+0x418>
    1946:	48 8d 3d 6a 07 00 00 	lea    0x76a(%rip),%rdi        # 20b7 <_IO_stdin_used+0xb7>
    194d:	b8 00 00 00 00       	mov    $0x0,%eax
    1952:	e8 f9 f8 ff ff       	callq  1250 <printf@plt>
    printf("func addr: %p\n",rsa_sign_verify_test+0x1b30 - 0x17d9);
    1957:	48 8d 05 fd 01 00 00 	lea    0x1fd(%rip),%rax        # 1b5b <rsa_sign_verify_test+0x357>
    195e:	48 89 c6             	mov    %rax,%rsi
    1961:	48 8d 3d 5e 07 00 00 	lea    0x75e(%rip),%rdi        # 20c6 <_IO_stdin_used+0xc6>
    1968:	b8 00 00 00 00       	mov    $0x0,%eax
    196d:	e8 de f8 ff ff       	callq  1250 <printf@plt>
    // printf("Instruction: %lx %lx %lx %lx\n", *ptr,*(ptr+1),*(ptr+2),*(ptr+3));
    // FILE* fp2=fopen("key.txt","w");
    //     fprintf(fp2,"%lx\n",getPage((uint8_t *)rsaKey.e.dp) );
    //     fsync(fp2);
  //  printf("RSA Signature Data:\n");
    if (verifyFileBuf) {
    1972:	48 83 7d 90 00       	cmpq   $0x0,-0x70(%rbp)
    1977:	74 13                	je     198c <rsa_sign_verify_test+0x188>
        sigLen = verifyFileLen;
    1979:	8b 45 98             	mov    -0x68(%rbp),%eax
    197c:	89 45 b8             	mov    %eax,-0x48(%rbp)
        sigBuf = verifyFileBuf;
    197f:	48 8b 45 90          	mov    -0x70(%rbp),%rax
    1983:	48 89 45 c8          	mov    %rax,-0x38(%rbp)
    1987:	e9 e9 00 00 00       	jmpq   1a75 <rsa_sign_verify_test+0x271>
    }
    else {
        bit_flip(rsaKey.d.dp,5);
    198c:	be 05 00 00 00       	mov    $0x5,%esi
    1991:	48 8d 3d d0 4f 00 00 	lea    0x4fd0(%rip),%rdi        # 6968 <rsaKey+0x828>
    1998:	e8 4c fa ff ff       	callq  13e9 <bit_flip>
        
        /* Get signature length and allocate buffer */
        printf("Rsakey size: %d\n",sizeof(RsaKey));
    199d:	be f8 20 00 00       	mov    $0x20f8,%esi
    19a2:	48 8d 3d 2c 07 00 00 	lea    0x72c(%rip),%rdi        # 20d5 <_IO_stdin_used+0xd5>
    19a9:	b8 00 00 00 00       	mov    $0x0,%eax
    19ae:	e8 9d f8 ff ff       	callq  1250 <printf@plt>
        sigLen = wc_SignatureGetSize(sig_type, &rsaKey, sizeof(rsaKey));
    19b3:	8b 45 a8             	mov    -0x58(%rbp),%eax
    19b6:	ba f8 20 00 00       	mov    $0x20f8,%edx
    19bb:	48 8d 35 7e 47 00 00 	lea    0x477e(%rip),%rsi        # 6140 <rsaKey>
    19c2:	89 c7                	mov    %eax,%edi
    19c4:	e8 27 f9 ff ff       	callq  12f0 <wc_SignatureGetSize@plt>
    19c9:	89 45 b8             	mov    %eax,-0x48(%rbp)
        if(sigLen <= 0) {
    19cc:	8b 45 b8             	mov    -0x48(%rbp),%eax
    19cf:	85 c0                	test   %eax,%eax
    19d1:	75 27                	jne    19fa <rsa_sign_verify_test+0x1f6>
            printf("RSA Signature size check fail! %d\n", sigLen);
    19d3:	8b 45 b8             	mov    -0x48(%rbp),%eax
    19d6:	89 c6                	mov    %eax,%esi
    19d8:	48 8d 3d 09 07 00 00 	lea    0x709(%rip),%rdi        # 20e8 <_IO_stdin_used+0xe8>
    19df:	b8 00 00 00 00       	mov    $0x0,%eax
    19e4:	e8 67 f8 ff ff       	callq  1250 <printf@plt>
            ret = EXIT_FAILURE;
    19e9:	c7 45 bc 01 00 00 00 	movl   $0x1,-0x44(%rbp)
            return 0;
    19f0:	b8 00 00 00 00       	mov    $0x0,%eax
    19f5:	e9 5e 01 00 00       	jmpq   1b58 <rsa_sign_verify_test+0x354>
        }
        
        sigBuf = malloc(sigLen);
    19fa:	8b 45 b8             	mov    -0x48(%rbp),%eax
    19fd:	89 c0                	mov    %eax,%eax
    19ff:	48 89 c7             	mov    %rax,%rdi
    1a02:	e8 89 f8 ff ff       	callq  1290 <malloc@plt>
    1a07:	48 89 45 c8          	mov    %rax,-0x38(%rbp)
        if(!sigBuf) {
    1a0b:	48 83 7d c8 00       	cmpq   $0x0,-0x38(%rbp)
    1a10:	75 1d                	jne    1a2f <rsa_sign_verify_test+0x22b>
            printf("RSA Signature malloc failed!\n");
    1a12:	48 8d 3d f2 06 00 00 	lea    0x6f2(%rip),%rdi        # 210b <_IO_stdin_used+0x10b>
    1a19:	e8 c2 f7 ff ff       	callq  11e0 <puts@plt>
            ret = EXIT_FAILURE;
    1a1e:	c7 45 bc 01 00 00 00 	movl   $0x1,-0x44(%rbp)
            return 0;
    1a25:	b8 00 00 00 00       	mov    $0x0,%eax
    1a2a:	e9 29 01 00 00       	jmpq   1b58 <rsa_sign_verify_test+0x354>
        }
        //printf("RSA Signature Len: %d\n", sigLen);
        //return 0;
	//sleep(3);
        /* Perform hash and sign to create signature */
        ret = wc_SignatureGenerate(
    1a2f:	8b 4d 9c             	mov    -0x64(%rbp),%ecx
    1a32:	4c 8d 4d b8          	lea    -0x48(%rbp),%r9
    1a36:	4c 8b 45 c8          	mov    -0x38(%rbp),%r8
    1a3a:	48 8b 55 a0          	mov    -0x60(%rbp),%rdx
    1a3e:	8b 75 a8             	mov    -0x58(%rbp),%esi
    1a41:	8b 45 ac             	mov    -0x54(%rbp),%eax
    1a44:	48 83 ec 08          	sub    $0x8,%rsp
    1a48:	48 8d 7d d0          	lea    -0x30(%rbp),%rdi
    1a4c:	57                   	push   %rdi
    1a4d:	68 f8 20 00 00       	pushq  $0x20f8
    1a52:	48 8d 3d e7 46 00 00 	lea    0x46e7(%rip),%rdi        # 6140 <rsaKey>
    1a59:	57                   	push   %rdi
    1a5a:	89 c7                	mov    %eax,%edi
    1a5c:	e8 3f f7 ff ff       	callq  11a0 <wc_SignatureGenerate@plt>
    1a61:	48 83 c4 20          	add    $0x20,%rsp
    1a65:	89 45 bc             	mov    %eax,-0x44(%rbp)
            fileBuf, fileLen,
            sigBuf, &sigLen,
            &rsaKey, sizeof(rsaKey),
            &rng);
        //printf("RSA Signature Generation: %s (%d)\n", (ret == 0) ? "Pass" : "Fail", ret);
        if(ret < 0) {
    1a68:	83 7d bc 00          	cmpl   $0x0,-0x44(%rbp)
    1a6c:	79 07                	jns    1a75 <rsa_sign_verify_test+0x271>
            ret = EXIT_FAILURE;
    1a6e:	c7 45 bc 01 00 00 00 	movl   $0x1,-0x44(%rbp)

    

    /* verify after sign */
#ifdef WOLFSSL_CHECK_SIG_FAULTS
    ret = wc_SignatureVerify(
    1a75:	44 8b 4d b8          	mov    -0x48(%rbp),%r9d
    1a79:	8b 4d 9c             	mov    -0x64(%rbp),%ecx
    1a7c:	4c 8b 45 c8          	mov    -0x38(%rbp),%r8
    1a80:	48 8b 55 a0          	mov    -0x60(%rbp),%rdx
    1a84:	8b 75 a8             	mov    -0x58(%rbp),%esi
    1a87:	8b 45 ac             	mov    -0x54(%rbp),%eax
    1a8a:	68 f8 20 00 00       	pushq  $0x20f8
    1a8f:	48 8d 3d aa 46 00 00 	lea    0x46aa(%rip),%rdi        # 6140 <rsaKey>
    1a96:	57                   	push   %rdi
    1a97:	89 c7                	mov    %eax,%edi
    1a99:	e8 e2 f7 ff ff       	callq  1280 <wc_SignatureVerify@plt>
    1a9e:	48 83 c4 10          	add    $0x10,%rsp
    1aa2:	89 45 bc             	mov    %eax,-0x44(%rbp)
        sigBuf, sigLen,
        &rsaKey, sizeof(rsaKey));
    
#endif

    if(ret != 0) {
    1aa5:	83 7d bc 00          	cmpl   $0x0,-0x44(%rbp)
    1aa9:	74 13                	je     1abe <rsa_sign_verify_test+0x2ba>
        ret = EXIT_FAILURE;
    1aab:	c7 45 bc 01 00 00 00 	movl   $0x1,-0x44(%rbp)
        printf("Verify after sign not pass\n");
    1ab2:	48 8d 3d 6f 06 00 00 	lea    0x66f(%rip),%rdi        # 2128 <_IO_stdin_used+0x128>
    1ab9:	e8 22 f7 ff ff       	callq  11e0 <puts@plt>
    }
    printf("siglen: %d\n",sigLen );
    1abe:	8b 45 b8             	mov    -0x48(%rbp),%eax
    1ac1:	89 c6                	mov    %eax,%esi
    1ac3:	48 8d 3d 79 06 00 00 	lea    0x679(%rip),%rdi        # 2143 <_IO_stdin_used+0x143>
    1aca:	b8 00 00 00 00       	mov    $0x0,%eax
    1acf:	e8 7c f7 ff ff       	callq  1250 <printf@plt>
    hexdump(sigBuf, sigLen, 16);
    1ad4:	8b 4d b8             	mov    -0x48(%rbp),%ecx
    1ad7:	48 8b 45 c8          	mov    -0x38(%rbp),%rax
    1adb:	ba 10 00 00 00       	mov    $0x10,%edx
    1ae0:	89 ce                	mov    %ecx,%esi
    1ae2:	48 89 c7             	mov    %rax,%rdi
    1ae5:	e8 1b fb ff ff       	callq  1605 <hexdump>

    int flip_index=compare_diff(&rsaKey.dP,&rsaKey2.dP);
    1aea:	48 8d 35 9f 39 00 00 	lea    0x399f(%rip),%rsi        # 5490 <rsaKey2+0x1450>
    1af1:	48 8d 3d 98 5a 00 00 	lea    0x5a98(%rip),%rdi        # 7590 <rsaKey+0x1450>
    1af8:	e8 76 fa ff ff       	callq  1573 <compare_diff>
    1afd:	89 45 c4             	mov    %eax,-0x3c(%rbp)
    if(flip_index==-1){
    1b00:	83 7d c4 ff          	cmpl   $0xffffffff,-0x3c(%rbp)
    1b04:	75 0e                	jne    1b14 <rsa_sign_verify_test+0x310>
        printf("not found flip\n");
    1b06:	48 8d 3d 42 06 00 00 	lea    0x642(%rip),%rdi        # 214f <_IO_stdin_used+0x14f>
    1b0d:	e8 ce f6 ff ff       	callq  11e0 <puts@plt>
    1b12:	eb 16                	jmp    1b2a <rsa_sign_verify_test+0x326>
    }
    else{
        printf("found flip, index: %d\n",flip_index);
    1b14:	8b 45 c4             	mov    -0x3c(%rbp),%eax
    1b17:	89 c6                	mov    %eax,%esi
    1b19:	48 8d 3d 3e 06 00 00 	lea    0x63e(%rip),%rdi        # 215e <_IO_stdin_used+0x15e>
    1b20:	b8 00 00 00 00       	mov    $0x0,%eax
    1b25:	e8 26 f7 ff ff       	callq  1250 <printf@plt>
    }
    

    if(sigBuf) {
    1b2a:	48 83 7d c8 00       	cmpq   $0x0,-0x38(%rbp)
    1b2f:	74 0c                	je     1b3d <rsa_sign_verify_test+0x339>
        free(sigBuf);
    1b31:	48 8b 45 c8          	mov    -0x38(%rbp),%rax
    1b35:	48 89 c7             	mov    %rax,%rdi
    1b38:	e8 73 f6 ff ff       	callq  11b0 <free@plt>
    }
    wc_FreeRsaKey(&rsaKey);
    1b3d:	48 8d 3d fc 45 00 00 	lea    0x45fc(%rip),%rdi        # 6140 <rsaKey>
    1b44:	e8 b7 f6 ff ff       	callq  1200 <wc_FreeRsaKey@plt>
    wc_FreeRng(&rng);
    1b49:	48 8d 45 d0          	lea    -0x30(%rbp),%rax
    1b4d:	48 89 c7             	mov    %rax,%rdi
    1b50:	e8 cb f6 ff ff       	callq  1220 <wc_FreeRng@plt>

    return ret;
    1b55:	8b 45 bc             	mov    -0x44(%rbp),%eax
}
    1b58:	48 8b 55 f8          	mov    -0x8(%rbp),%rdx
    1b5c:	64 48 33 14 25 28 00 	xor    %fs:0x28,%rdx
    1b63:	00 00 
    1b65:	74 05                	je     1b6c <rsa_sign_verify_test+0x368>
    1b67:	e8 c4 f6 ff ff       	callq  1230 <__stack_chk_fail@plt>
    1b6c:	c9                   	leaveq 
    1b6d:	c3                   	retq   

0000000000001b6e <main>:
#endif /* !NO_RSA */


int main(int argc, char** argv)
{
    1b6e:	f3 0f 1e fa          	endbr64 
    1b72:	55                   	push   %rbp
    1b73:	48 89 e5             	mov    %rsp,%rbp
    1b76:	48 81 ec d0 00 00 00 	sub    $0xd0,%rsp
    1b7d:	89 bd 3c ff ff ff    	mov    %edi,-0xc4(%rbp)
    1b83:	48 89 b5 30 ff ff ff 	mov    %rsi,-0xd0(%rbp)
    1b8a:	64 48 8b 04 25 28 00 	mov    %fs:0x28,%rax
    1b91:	00 00 
    1b93:	48 89 45 f8          	mov    %rax,-0x8(%rbp)
    1b97:	31 c0                	xor    %eax,%eax
    int ret = 0;
    1b99:	c7 85 4c ff ff ff 00 	movl   $0x0,-0xb4(%rbp)
    1ba0:	00 00 00 
    int fileLen=128;
    1ba3:	c7 85 50 ff ff ff 80 	movl   $0x80,-0xb0(%rbp)
    1baa:	00 00 00 
    byte fileBuf[128];
    int verifyFileLen = 0;
    1bad:	c7 85 54 ff ff ff 00 	movl   $0x0,-0xac(%rbp)
    1bb4:	00 00 00 
    byte* verifyFileBuf = NULL;
    1bb7:	48 c7 85 60 ff ff ff 	movq   $0x0,-0xa0(%rbp)
    1bbe:	00 00 00 00 
    const char* verify_file = NULL;
    1bc2:	48 c7 85 68 ff ff ff 	movq   $0x0,-0x98(%rbp)
    1bc9:	00 00 00 00 
    enum wc_SignatureType sig_type = WC_SIGNATURE_TYPE_NONE;
    1bcd:	c7 85 58 ff ff ff 00 	movl   $0x0,-0xa8(%rbp)
    1bd4:	00 00 00 
    enum wc_HashType hash_type = WC_HASH_TYPE_NONE;
    1bd7:	c7 85 5c ff ff ff 00 	movl   $0x0,-0xa4(%rbp)
    1bde:	00 00 00 

    sig_type = WC_SIGNATURE_TYPE_RSA;
    1be1:	c7 85 58 ff ff ff 02 	movl   $0x2,-0xa8(%rbp)
    1be8:	00 00 00 
    hash_type = WC_HASH_TYPE_SHA;
    1beb:	c7 85 5c ff ff ff 04 	movl   $0x4,-0xa4(%rbp)
    1bf2:	00 00 00 


    /* Verify hash type is supported */
    if (wc_HashGetDigestSize(hash_type) <= 0) {
    1bf5:	8b 85 5c ff ff ff    	mov    -0xa4(%rbp),%eax
    1bfb:	89 c7                	mov    %eax,%edi
    1bfd:	e8 3e f6 ff ff       	callq  1240 <wc_HashGetDigestSize@plt>
    1c02:	85 c0                	test   %eax,%eax
    1c04:	7f 20                	jg     1c26 <main+0xb8>
        printf("Hash type %d not supported!\n", hash_type);
    1c06:	8b 85 5c ff ff ff    	mov    -0xa4(%rbp),%eax
    1c0c:	89 c6                	mov    %eax,%esi
    1c0e:	48 8d 3d 60 05 00 00 	lea    0x560(%rip),%rdi        # 2175 <_IO_stdin_used+0x175>
    1c15:	b8 00 00 00 00       	mov    $0x0,%eax
    1c1a:	e8 31 f6 ff ff       	callq  1250 <printf@plt>
        return 1;
    1c1f:	b8 01 00 00 00       	mov    $0x1,%eax
    1c24:	eb 7c                	jmp    1ca2 <main+0x134>
    }

    //printf("Signature Example: Sig=%d, Hash=%d\n", sig_type, hash_type);

    for(int i=0;i<fileLen;i++){
    1c26:	c7 85 48 ff ff ff 00 	movl   $0x0,-0xb8(%rbp)
    1c2d:	00 00 00 
    1c30:	eb 1e                	jmp    1c50 <main+0xe2>
        fileBuf[i]=i;
    1c32:	8b 85 48 ff ff ff    	mov    -0xb8(%rbp),%eax
    1c38:	89 c2                	mov    %eax,%edx
    1c3a:	8b 85 48 ff ff ff    	mov    -0xb8(%rbp),%eax
    1c40:	48 98                	cltq   
    1c42:	88 94 05 70 ff ff ff 	mov    %dl,-0x90(%rbp,%rax,1)
    for(int i=0;i<fileLen;i++){
    1c49:	83 85 48 ff ff ff 01 	addl   $0x1,-0xb8(%rbp)
    1c50:	8b 85 48 ff ff ff    	mov    -0xb8(%rbp),%eax
    1c56:	3b 85 50 ff ff ff    	cmp    -0xb0(%rbp),%eax
    1c5c:	7c d4                	jl     1c32 <main+0xc4>
    }


    ret = rsa_sign_verify_test(hash_type, sig_type, fileBuf, fileLen,
    1c5e:	44 8b 85 54 ff ff ff 	mov    -0xac(%rbp),%r8d
    1c65:	48 8b bd 60 ff ff ff 	mov    -0xa0(%rbp),%rdi
    1c6c:	8b 8d 50 ff ff ff    	mov    -0xb0(%rbp),%ecx
    1c72:	48 8d 95 70 ff ff ff 	lea    -0x90(%rbp),%rdx
    1c79:	8b b5 58 ff ff ff    	mov    -0xa8(%rbp),%esi
    1c7f:	8b 85 5c ff ff ff    	mov    -0xa4(%rbp),%eax
    1c85:	45 89 c1             	mov    %r8d,%r9d
    1c88:	49 89 f8             	mov    %rdi,%r8
    1c8b:	89 c7                	mov    %eax,%edi
    1c8d:	e8 72 fb ff ff       	callq  1804 <rsa_sign_verify_test>
    1c92:	89 85 4c ff ff ff    	mov    %eax,-0xb4(%rbp)
    1c98:	f3 0f 1e fa          	endbr64 
            

exit:
    /* Free */

    return ret;
    1c9c:	8b 85 4c ff ff ff    	mov    -0xb4(%rbp),%eax
}
    1ca2:	48 8b 4d f8          	mov    -0x8(%rbp),%rcx
    1ca6:	64 48 33 0c 25 28 00 	xor    %fs:0x28,%rcx
    1cad:	00 00 
    1caf:	74 05                	je     1cb6 <main+0x148>
    1cb1:	e8 7a f5 ff ff       	callq  1230 <__stack_chk_fail@plt>
    1cb6:	c9                   	leaveq 
    1cb7:	c3                   	retq   
    1cb8:	0f 1f 84 00 00 00 00 	nopl   0x0(%rax,%rax,1)
    1cbf:	00 

0000000000001cc0 <__libc_csu_init>:
    1cc0:	f3 0f 1e fa          	endbr64 
    1cc4:	41 57                	push   %r15
    1cc6:	4c 8d 3d 33 20 00 00 	lea    0x2033(%rip),%r15        # 3d00 <__frame_dummy_init_array_entry>
    1ccd:	41 56                	push   %r14
    1ccf:	49 89 d6             	mov    %rdx,%r14
    1cd2:	41 55                	push   %r13
    1cd4:	49 89 f5             	mov    %rsi,%r13
    1cd7:	41 54                	push   %r12
    1cd9:	41 89 fc             	mov    %edi,%r12d
    1cdc:	55                   	push   %rbp
    1cdd:	48 8d 2d 24 20 00 00 	lea    0x2024(%rip),%rbp        # 3d08 <__do_global_dtors_aux_fini_array_entry>
    1ce4:	53                   	push   %rbx
    1ce5:	4c 29 fd             	sub    %r15,%rbp
    1ce8:	48 83 ec 08          	sub    $0x8,%rsp
    1cec:	e8 0f f3 ff ff       	callq  1000 <_init>
    1cf1:	48 c1 fd 03          	sar    $0x3,%rbp
    1cf5:	74 1f                	je     1d16 <__libc_csu_init+0x56>
    1cf7:	31 db                	xor    %ebx,%ebx
    1cf9:	0f 1f 80 00 00 00 00 	nopl   0x0(%rax)
    1d00:	4c 89 f2             	mov    %r14,%rdx
    1d03:	4c 89 ee             	mov    %r13,%rsi
    1d06:	44 89 e7             	mov    %r12d,%edi
    1d09:	41 ff 14 df          	callq  *(%r15,%rbx,8)
    1d0d:	48 83 c3 01          	add    $0x1,%rbx
    1d11:	48 39 dd             	cmp    %rbx,%rbp
    1d14:	75 ea                	jne    1d00 <__libc_csu_init+0x40>
    1d16:	48 83 c4 08          	add    $0x8,%rsp
    1d1a:	5b                   	pop    %rbx
    1d1b:	5d                   	pop    %rbp
    1d1c:	41 5c                	pop    %r12
    1d1e:	41 5d                	pop    %r13
    1d20:	41 5e                	pop    %r14
    1d22:	41 5f                	pop    %r15
    1d24:	c3                   	retq   
    1d25:	66 66 2e 0f 1f 84 00 	data16 nopw %cs:0x0(%rax,%rax,1)
    1d2c:	00 00 00 00 

0000000000001d30 <__libc_csu_fini>:
    1d30:	f3 0f 1e fa          	endbr64 
    1d34:	c3                   	retq   

Disassembly of section .fini:

0000000000001d38 <_fini>:
    1d38:	f3 0f 1e fa          	endbr64 
    1d3c:	48 83 ec 08          	sub    $0x8,%rsp
    1d40:	48 83 c4 08          	add    $0x8,%rsp
    1d44:	c3                   	retq   
